Microchip MPLAB XC8 Compiler V1.35 ()

Linker command line:

--edf=C:\Program Files (x86)\Microchip\xc8\v1.35\dat\en_msgs.txt -cs \
  -h+dist/miwikit_pic18f46j50_24j40/production\miwi_demo_kit.X.production.sym \
  --cmf=dist/miwikit_pic18f46j50_24j40/production\miwi_demo_kit.X.production.cmf \
  -z -Q18F46J50 -oC:\Users\FRDRIC~1\AppData\Local\Temp\sqk.2 \
  -Mdist/miwikit_pic18f46j50_24j40/production/miwi_demo_kit.X.production.map \
  -E1 -ver=XC8 -ASTACK=0486h-0ebfh -pstack=STACK -ACODE=00h-0FFF7h \
  -ACONST=00h-0FFF7h -ASMALLCONST=0F00h-0FFFhx240,0FF00h-0FFF7h \
  -AMEDIUMCONST=0F00h-0FFF7h -ACOMRAM=01h-05Fh -AABS1=00h-0EBFh \
  -ABIGRAM=01h-0EBFh -ARAM=060h-0FFh,0100h-01FFhx13,0E00h-0EBFh \
  -ABANK0=060h-0FFh -ABANK1=0100h-01FFh -ABANK2=0200h-02FFh \
  -ABANK3=0300h-03FFh -ABANK4=0400h-04FFh -ABANK5=0500h-05FFh \
  -ABANK6=0600h-06FFh -ABANK7=0700h-07FFh -ABANK8=0800h-08FFh \
  -ABANK9=0900h-09FFh -ABANK10=0A00h-0AFFh -ABANK11=0B00h-0BFFh \
  -ABANK12=0C00h-0CFFh -ABANK13=0D00h-0DFFh -ABANK14=0E00h-0EBFh \
  -ASFR=0EC0h-0EFFh,0F00h-0F5Fh,0F60h-0FFFh \
  -preset_vec=00h,intcode=08h,intcodelo,powerup,init,end_init \
  -pramtop=0F00h -psmallconst=SMALLCONST -pmediumconst=MEDIUMCONST \
  -pconst=CONST -AFARRAM=00h-00h -ACONFIG=0FFF8h-0FFFFh -pconfig=CONFIG \
  -pjflash_buffer=0F800h \
  -prdata=COMRAM,nvrram=COMRAM,nvbit=COMRAM,rbss=COMRAM,rbit=COMRAM \
  -pfarbss=FARRAM,fardata=FARRAM,nvFARRAM=FARRAM \
  -pintsave_regs=BIGRAM,bigbss=BIGRAM,bigdata=BIGRAM -pbss=RAM \
  -pidata=CODE,irdata=CODE,ibigdata=CODE,ifardata=CODE -prparam=COMRAM \
  C:\Users\FRDRIC~1\AppData\Local\Temp\sqk.obj \
  dist/miwikit_pic18f46j50_24j40/production\miwi_demo_kit.X.production.obj 

Object code version is 3.11

Machine type is 18F46J50

Call graph: (short form)




                Name                               Link     Load   Length Selector   Space Scale
C:\Users\FRDRIC~1\AppData\Local\Temp\sqk.obj
                end_init                            1F2      1F2        4        4       0
                reset_vec                             0        0        4        0       0
                config                             FFF8     FFF8        8     FFF8       0
dist/miwikit_pic18f46j50_24j40/production\miwi_demo_kit.X.production.obj
                intcode                               8        8      1EA        4       0
                temp                                 41       41        1        1       1
                mediumconst                        FBA6     FBA6      452     7DD3       0
                text90                             9C80     9C80        2     4E29       0
                text89                             9BDE     9BDE       1A        4       0
                text88                             9C66     9C66        A     4E29       0
                text87                             9722     9722       52        4       0
                text86                             9B14     9B14       2A        4       0
                text85                             9B3E     9B3E       28        4       0
                text83                             9A94     9A94       2C        4       0
                text82                             9BC2     9BC2       1C        4       0
                text81                             9C70     9C70        8     4E29       0
                text80                             8AC0     8AC0       CC        4       0
                text79                             9228     9228       88        4       0
                text78                             984A     984A       40        4       0
                text77                             87B2     87B2      10A        4       0
                text76                             9420     9420       70        4       0
                text75                             9806     9806       44        4       0
                text74                             8D12     8D12       BA        4       0
                text73                             9BA6     9BA6       1C        4       0
                text72                             95C4     95C4       62        4       0
                text71                             99D8     99D8       32        4       0
                text70                             967C     967C       54        4       0
                text69                             9B66     9B66       24        4       0
                text68                             3F86     3F86      6D2        4       0
                text67                             9C5C     9C5C        A     4E29       0
                text66                             94FE     94FE       64        4       0
                text65                             996E     996E       36        4       0
                text64                             6AEA     6AEA      2C0        4       0
                text63                             9490     9490       6E        4       0
                text62                             5AE6     5AE6      4C2        4       0
                text61                             8F24     8F24       AA        4       0
                text60                             96D0     96D0       52        4       0
                text59                             3828     3828      75E        4       0
                text58                             6DAA     6DAA      2B0        4       0
                text57                             8470     8470      128        4       0
                text56                             5134     5134      4DC        4       0
                text55                             9110     9110       8E        4       0
                text54                              1F6      1F6     1BF2        4       0
                text53                             9C36     9C36       10        4       0
                text52                             754A     754A      234        4       0
                text51                             5FA8     5FA8      442        4       0
                text50                             63EA     63EA      3E8        4       0
                text49                             5610     5610      4D6        4       0
                text48                             9BF8     9BF8       16        4       0
                text47                             9774     9774       4A        4       0
                text46                             7DA4     7DA4      186        4       0
                text45                             97BE     97BE       48        4       0
                text44                             8C54     8C54       BE        4       0
                text43                             798E     798E      210        4       0
                text42                             88BC     88BC      108        4       0
                text41                             8088     8088      158        4       0
                text40                             9C7C     9C7C        4     4E29       0
                text39                             9C78     9C78        4     4E29       0
                text38                             93AA     93AA       76        4       0
                text37                             8E7A     8E7A       AA        4       0
                text36                             9B8A     9B8A       1C        4       0
                text35                             9C22     9C22       14        4       0
                text34                             99A4     99A4       34        4       0
                text33                             98C6     98C6       3A        4       0
                text32                             9C0E     9C0E       14        4       0
                text31                             8FCE     8FCE       A8        4       0
                text30                             9332     9332       78        4       0
                text29                             9562     9562       62        4       0
                text28                             9938     9938       36        4       0
                text27                             9AEA     9AEA       2A        4       0
                text26                             2DEA     2DEA      A3E        4       0
                text25                             9626     9626       56        4       0
                text24                             777E     777E      210        4       0
                text23                             4BF2     4BF2      542        4       0
                text22                             9C52     9C52        A     4E29       0
                text21                             9900     9900       38        4       0
                text20                             8598     8598      10E        4       0
                text19                             92B0     92B0       82        4       0
                text18                             8DCC     8DCC       AE        4       0
                text17                             9A68     9A68       2C        4       0
                text16                             67D2     67D2      318        4       0
                text15                             89C4     89C4       FC        4       0
                text14                             7B9E     7B9E      206        4       0
                text13                             9076     9076       9A        4       0
                text12                             86A6     86A6      10C        4       0
                text11                             72E2     72E2      268        4       0
                text10                             81E0     81E0      14C        4       0
                text9                              8B8C     8B8C       C8        4       0
                text8                              7F2A     7F2A      15E        4       0
                text7                              9A0A     9A0A       30        4       0
                text6                              832C     832C      144        4       0
                text5                              9A3A     9A3A       2E        4       0
                text4                              9AC0     9AC0       2A        4       0
                text3                              705A     705A      288        4       0
                text2                              988A     988A       3C        4       0
                text1                              4658     4658      59A        4       0
                text0                              1DE8     1DE8     1002        4       0
                cstackCOMRAM                          1        1       20        1       1
                cstackBANK0                          60       60       9A       60       1
                cstackBANK1                         1D7      1D7       1E      100       1
                cstackBANK3                         3A0      3A0       1B      300       1
                bssBANK4                            400      400       86      400       1
                bssBANK3                            300      300       A0      300       1
                bssBANK2                            200      200       E6      200       1
                dataBANK1                           1F5      1F5        B      100       1
                bssBANK1                            100      100       D7      100       1
                bssBANK0                             FA       FA        6       60       1
                dataCOMRAM                           40       40        1        1       1
                bssCOMRAM                            21       21       1F        1       1
                cinit                              919E     919E       8A        4       0
                idataBANK1                         9C46     9C46        B        4       0
                idataCOMRAM                        9C82     9C82        1     4E29       0

TOTAL           Name                               Link     Load   Length     Space
        CLASS   STACK          

        CLASS   CODE           
                end_init                            1F2      1F2        4         0
                intcode                               8        8      1EA         0
                reset_vec                             0        0        4         0
                text90                             9C80     9C80        2         0
                text89                             9BDE     9BDE       1A         0
                text88                             9C66     9C66        A         0
                text87                             9722     9722       52         0
                text86                             9B14     9B14       2A         0
                text85                             9B3E     9B3E       28         0
                text83                             9A94     9A94       2C         0
                text82                             9BC2     9BC2       1C         0
                text81                             9C70     9C70        8         0
                text80                             8AC0     8AC0       CC         0
                text79                             9228     9228       88         0
                text78                             984A     984A       40         0
                text77                             87B2     87B2      10A         0
                text76                             9420     9420       70         0
                text75                             9806     9806       44         0
                text74                             8D12     8D12       BA         0
                text73                             9BA6     9BA6       1C         0
                text72                             95C4     95C4       62         0
                text71                             99D8     99D8       32         0
                text70                             967C     967C       54         0
                text69                             9B66     9B66       24         0
                text68                             3F86     3F86      6D2         0
                text67                             9C5C     9C5C        A         0
                text66                             94FE     94FE       64         0
                text65                             996E     996E       36         0
                text64                             6AEA     6AEA      2C0         0
                text63                             9490     9490       6E         0
                text62                             5AE6     5AE6      4C2         0
                text61                             8F24     8F24       AA         0
                text60                             96D0     96D0       52         0
                text59                             3828     3828      75E         0
                text58                             6DAA     6DAA      2B0         0
                text57                             8470     8470      128         0
                text56                             5134     5134      4DC         0
                text55                             9110     9110       8E         0
                text54                              1F6      1F6     1BF2         0
                text53                             9C36     9C36       10         0
                text52                             754A     754A      234         0
                text51                             5FA8     5FA8      442         0
                text50                             63EA     63EA      3E8         0
                text49                             5610     5610      4D6         0
                text48                             9BF8     9BF8       16         0
                text47                             9774     9774       4A         0
                text46                             7DA4     7DA4      186         0
                text45                             97BE     97BE       48         0
                text44                             8C54     8C54       BE         0
                text43                             798E     798E      210         0
                text42                             88BC     88BC      108         0
                text41                             8088     8088      158         0
                text40                             9C7C     9C7C        4         0
                text39                             9C78     9C78        4         0
                text38                             93AA     93AA       76         0
                text37                             8E7A     8E7A       AA         0
                text36                             9B8A     9B8A       1C         0
                text35                             9C22     9C22       14         0
                text34                             99A4     99A4       34         0
                text33                             98C6     98C6       3A         0
                text32                             9C0E     9C0E       14         0
                text31                             8FCE     8FCE       A8         0
                text30                             9332     9332       78         0
                text29                             9562     9562       62         0
                text28                             9938     9938       36         0
                text27                             9AEA     9AEA       2A         0
                text26                             2DEA     2DEA      A3E         0
                text25                             9626     9626       56         0
                text24                             777E     777E      210         0
                text23                             4BF2     4BF2      542         0
                text22                             9C52     9C52        A         0
                text21                             9900     9900       38         0
                text20                             8598     8598      10E         0
                text19                             92B0     92B0       82         0
                text18                             8DCC     8DCC       AE         0
                text17                             9A68     9A68       2C         0
                text16                             67D2     67D2      318         0
                text15                             89C4     89C4       FC         0
                text14                             7B9E     7B9E      206         0
                text13                             9076     9076       9A         0
                text12                             86A6     86A6      10C         0
                text11                             72E2     72E2      268         0
                text10                             81E0     81E0      14C         0
                text9                              8B8C     8B8C       C8         0
                text8                              7F2A     7F2A      15E         0
                text7                              9A0A     9A0A       30         0
                text6                              832C     832C      144         0
                text5                              9A3A     9A3A       2E         0
                text4                              9AC0     9AC0       2A         0
                text3                              705A     705A      288         0
                text2                              988A     988A       3C         0
                text1                              4658     4658      59A         0
                text0                              1DE8     1DE8     1002         0
                cinit                              919E     919E       8A         0
                idataBANK1                         9C46     9C46        B         0
                idataCOMRAM                        9C82     9C82        1         0

        CLASS   CONST          

        CLASS   SMALLCONST     

        CLASS   MEDIUMCONST    
                mediumconst                        FBA6     FBA6      452         0

        CLASS   COMRAM         
                temp                                 41       41        1         1
                cstackCOMRAM                          1        1       20         1
                dataCOMRAM                           40       40        1         1
                bssCOMRAM                            21       21       1F         1

        CLASS   ABS1           

        CLASS   BIGRAM         

        CLASS   RAM            

        CLASS   BANK0          
                cstackBANK0                          60       60       9A         1
                bssBANK0                             FA       FA        6         1

        CLASS   BANK1          
                cstackBANK1                         1D7      1D7       1E         1
                dataBANK1                           1F5      1F5        B         1
                bssBANK1                            100      100       D7         1

        CLASS   BANK2          
                bssBANK2                            200      200       E6         1

        CLASS   BANK3          
                cstackBANK3                         3A0      3A0       1B         1
                bssBANK3                            300      300       A0         1

        CLASS   BANK4          
                bssBANK4                            400      400       86         1

        CLASS   BANK5          

        CLASS   BANK6          

        CLASS   BANK7          

        CLASS   BANK8          

        CLASS   BANK9          

        CLASS   BANK10         

        CLASS   BANK11         

        CLASS   BANK12         

        CLASS   BANK13         

        CLASS   BANK14         

        CLASS   SFR            

        CLASS   FARRAM         

        CLASS   CONFIG         
                config                             FFF8     FFF8        8         0

        CLASS   IDLOC          



SEGMENTS        Name                           Load    Length   Top    Selector   Space  Class

                reset_vec                      000000  000004  000004         0       0  CODE    
                cstackCOMRAM                   000001  000041  000042         1       1  COMRAM  
                intcode                        000008  009C49  009C51         4       0  CODE    
                cstackBANK0                    000060  0000A0  000100        60       1  BANK0   
                bssBANK1                       000100  000100  000200       100       1  BANK1   
                bssBANK2                       000200  0000E6  0002E6       200       1  BANK2   
                bssBANK3                       000300  0000BB  0003BB       300       1  BANK3   
                bssBANK4                       000400  000086  000486       400       1  BANK4   
                text22                         009C52  000031  009C83      4E29       0  CODE    
                mediumconst                    00FBA6  000452  00FFF8      7DD3       0  MEDIUMCO
                config                         00FFF8  000008  010000      FFF8       0  CONFIG  


UNUSED ADDRESS RANGES

        Name                Unused          Largest block    Delta
        BANK10           00A00-00AFF             100
        BANK11           00B00-00BFF             100
        BANK12           00C00-00CFF             100
        BANK13           00D00-00DFF             100
        BANK14           00E00-00EBF              C0
        BANK2            002E6-002FF              1A
        BANK3            003BB-003FF              45
        BANK4            00486-004FF              7A
        BANK5            00500-005FF             100
        BANK6            00600-006FF             100
        BANK7            00700-007FF             100
        BANK8            00800-008FF             100
        BANK9            00900-009FF             100
        BIGRAM           00042-0005F              1E
                         002E6-002FF              1A
                         003BB-003FF              45
                         00486-00EBF             A3A
        CODE             00004-00007               4
                         09C51-09C51               1
                         09C83-0FBA5            5F23
        COMRAM           00042-0005F              1E
        CONST            00004-00007               4
                         09C51-09C51               1
                         09C83-0FBA5            5F23
        MEDIUMCONST      09C51-09C51               1
                         09C83-0FBA5            5F23
        RAM              002E6-002FF              1A
                         003BB-003FF              45
                         00486-00EBF             100
        SFR              00EC0-00FFF              60
        SMALLCONST       09C51-09C51               1
                         09C83-0FBA5             100
        STACK            00486-00EBF             A3A

                                  Symbol Table

?_MiWi_TickGet                            cstackBANK0   00060
?_Read_VBGVoltage                         cstackBANK0   00074
?___awdiv                                 cstackBANK0   00060
?___ftadd                                 cstackBANK0   0006F
?___ftdiv                                 cstackBANK0   0007B
?___ftmul                                 cstackBANK0   0007B
?___ftneg                                 cstackBANK0   0006C
?___ftpack                                cstackBANK0   00060
?___fttol                                 cstackBANK0   00060
?___lbtoft                                cstackBANK0   00068
?___lmul                                  cstackBANK0   00060
?___lwdiv                                 cstackBANK0   00060
?___lwmod                                 cstackBANK0   00067
?___lwtoft                                cstackBANK0   00068
?___wmul                                  cstackBANK0   00060
?_sprintf                                 cstackBANK0   0006C
AddNodeToNetworkTable@handle              cstackBANK0   00069
AddNodeToNetworkTable@i                   cstackBANK0   00068
BUTTON_Pressed@result                     cstackBANK0   00076
BUTTON_Pressed@t                          cstackBANK0   00072
BUTTON_Pressed@tickDifference             cstackBANK0   0006E
BroadcastJitter@jitter                    cstackBANK0   0007B
BroadcastJitter@range                     cstackBANK0   0007A
BroadcastJitter@t1                        cstackBANK0   00072
BroadcastJitter@t2                        cstackBANK0   00076
DELAY_10us@cyclesRequiredForEntireDelay   cstackBANK0   00070
DELAY_10us@tenMicroSecondCounter          cstackBANK0   0006C
DELAY_ms@cyclesRequiredForEntireDelay     cstackBANK0   0006E
DELAY_ms@ms                               cstackBANK0   0006C
EEPROMRead@addr                           cstackBANK0   00064
EEPROMRead@count                          cstackBANK0   00065
EEPROMRead@dest                           cstackBANK0   00062
InitMRF24J40@_dcnt                        cstackBANK0   0006B
InitMRF24J40@_dcnt_698                    cstackBANK0   0006F
InitMRF24J40@_ms                          cstackBANK0   00073
InitMRF24J40@_ms_699                      cstackBANK0   00077
InitMRF24J40@i                            cstackBANK0   0007D
InitMRF24J40@j                            cstackBANK0   0007B
LCD_Display@delay                         cstackBANK0   00092
LCD_Display@i                             cstackBANK0   00093
LCD_Display@text                          cstackBANK0   0008F
LCD_Display@value                         cstackBANK0   00091
LCD_Update@i                              cstackBANK0   00063
LCD_WriteCmd@data                         cstackBANK0   00062
LCD_WriteData@data                        cstackBANK0   00062
MiApp_BroadcastPacket@SecEn               cstackBANK0   0009D
MiApp_BroadcastPacket@i                   cstackBANK0   0009E
MiApp_ConnectionMode@Mode                 cstackBANK0   00061
MiApp_EstablishConnection@ActiveScanIndex cstackBANK1   001EC
MiApp_EstablishConnection@Mode            cstackBANK1   001D9
MiApp_EstablishConnection@i               cstackBANK1   001EB
MiApp_EstablishConnection@retry           cstackBANK1   001EA
MiApp_EstablishConnection@t1              cstackBANK1   001E2
MiApp_EstablishConnection@t2              cstackBANK1   001E6
MiApp_NoiseDetection@ChannelMap           cstackBANK0   0006B
MiApp_NoiseDetection@DetectionMode        cstackBANK0   00070
MiApp_NoiseDetection@OptimalChannel       cstackBANK0   0008C
MiApp_NoiseDetection@RSSIValue            cstackBANK0   00071
MiApp_NoiseDetection@RSSIcheck            cstackBANK0   0008F
MiApp_NoiseDetection@ScanDuration         cstackBANK0   0006F
MiApp_NoiseDetection@channelMask          cstackBANK0   00080
MiApp_NoiseDetection@i                    cstackBANK0   00091
MiApp_NoiseDetection@j                    cstackBANK0   0008D
MiApp_NoiseDetection@k                    cstackBANK0   0008E
MiApp_NoiseDetection@maxRSSI              cstackBANK0   00092
MiApp_NoiseDetection@minRSSI              cstackBANK0   00090
MiApp_NoiseDetection@t1                   cstackBANK0   00084
MiApp_NoiseDetection@t2                   cstackBANK0   00088
MiApp_ProtocolInit@MIP                    cstackBANK0   00084
MiApp_ProtocolInit@bNetworkFreezer        cstackBANK0   00083
MiApp_ProtocolInit@i                      cstackBANK0   00087
MiApp_SearchConnection@ChannelMap         cstackBANK0   000DA
MiApp_SearchConnection@ScanDuration       cstackBANK0   000F7
MiApp_SearchConnection@backupChannel      cstackBANK0   000F8
MiApp_SearchConnection@channelMask        cstackBANK0   000EB
MiApp_SearchConnection@i                  cstackBANK0   000F9
MiApp_SearchConnection@t1                 cstackBANK0   000EF
MiApp_SearchConnection@t2                 cstackBANK0   000F3
MiApp_SetChannel@channel                  cstackBANK0   0006A
MiApp_StartConnection@ChannelMap          cstackBANK0   00094
MiApp_StartConnection@Mode                cstackBANK0   00099
MiApp_StartConnection@RSSIValue           cstackBANK0   0009B
MiApp_StartConnection@ScanDuration        cstackBANK0   00093
MiApp_StartConnection@channel             cstackBANK0   0009A
MiApp_UnicastAddress@DestAddress          cstackBANK0   000DA
MiApp_UnicastAddress@MiWiFrameControl     cstackBANK0   000F6
MiApp_UnicastAddress@PermanentAddr        cstackBANK0   000DC
MiApp_UnicastAddress@SecEn                cstackBANK0   000DD
MiApp_UnicastAddress@handle               cstackBANK0   000F8
MiApp_UnicastAddress@i                    cstackBANK0   000F7
MiApp_UnicastAddress@t1                   cstackBANK0   000E6
MiApp_UnicastAddress@t1_1751              cstackBANK0   000EE
MiApp_UnicastAddress@t2                   cstackBANK0   000EA
MiApp_UnicastAddress@t2_1762              cstackBANK0   000F2
MiApp_UnicastConnection@ConnectionIndex   cstackBANK0   000EC
MiApp_UnicastConnection@MiWiFrameControl  cstackBANK0   000EB
MiApp_UnicastConnection@SecEn             cstackBANK0   000DA
MiApp_UnicastConnection@t1                cstackBANK0   000E3
MiApp_UnicastConnection@t2                cstackBANK0   000E7
MiMAC_ChannelAssessment@RSSIcheck         cstackBANK0   00068
MiMAC_Init@i                              cstackBANK0   00081
MiMAC_Init@initValue                      cstackBANK0   0007E
MiMAC_ReceivedPacket@addrMode             cstackBANK0   00066
MiMAC_ReceivedPacket@bIntraPAN            cstackBANK0   00068
MiMAC_ReceivedPacket@i                    cstackBANK0   00067
MiMAC_SendPacket@IntraPAN                 cstackBANK0   00098
MiMAC_SendPacket@MACPayload               cstackBANK0   00085
MiMAC_SendPacket@MACPayloadLen            cstackBANK0   00087
MiMAC_SendPacket@frameControl             cstackBANK0   00099
MiMAC_SendPacket@headerLength             cstackBANK0   0009A
MiMAC_SendPacket@i                        cstackBANK0   0009B
MiMAC_SendPacket@loc                      cstackBANK0   0009C
MiMAC_SendPacket@t1                       cstackBANK0   00090
MiMAC_SendPacket@t2                       cstackBANK0   00094
MiMAC_SendPacket@transParam               cstackBANK0   0007E
MiMAC_SetAltAddress@Address               cstackBANK0   00065
MiMAC_SetAltAddress@PANID                 cstackBANK0   00067
MiMAC_SetChannel@channel                  cstackBANK0   00069
MiMAC_SetChannel@offsetFreq               cstackBANK0   00068
MiWiTasks@CapacityByte                    cstackBANK0   000CA
MiWiTasks@CoordAddress                    cstackBANK0   000BD
MiWiTasks@associateStatus                 cstackBANK0   000C1
MiWiTasks@cIndex                          cstackBANK0   000C9
MiWiTasks@coordinatorNumber               cstackBANK0   000C2
MiWiTasks@destPANID                       cstackBANK0   000CC
MiWiTasks@destShortAddress                cstackBANK0   000D0
MiWiTasks@entry                           cstackBANK0   000C0
MiWiTasks@handle                          cstackBANK0   000D5
MiWiTasks@i                               cstackBANK0   000D9
MiWiTasks@j                               cstackBANK0   000D8
MiWiTasks@j_1467                          cstackBANK0   000D4
MiWiTasks@j_1511                          cstackBANK0   000CE
MiWiTasks@j_1522                          cstackBANK0   000C3
MiWiTasks@j_1553                          cstackBANK0   000CF
MiWiTasks@mask                            cstackBANK0   000BF
MiWiTasks@rxIndex                         cstackBANK0   000CB
MiWiTasks@sourcePANID                     cstackBANK0   000D2
MiWiTasks@sourceShortAddress              cstackBANK0   000D6
MiWiTasks@t1                              cstackBANK0   000C5
MiWiTasks@t2                              cstackBANK0   000B9
MiWi_TickGet@currentTime                  cstackBANK0   00066
MiWi_TickGet@failureCounter               cstackBANK0   00065
OpenSocket@i                              cstackBANK0   000F9
PHYGetLongRAMAddr@address                 cstackBANK0   00062
PHYGetLongRAMAddr@tmpRFIE                 cstackBANK0   00067
PHYGetLongRAMAddr@toReturn                cstackBANK0   00066
PHYGetShortRAMAddr@address                cstackBANK0   00062
PHYGetShortRAMAddr@tmpRFIE                cstackBANK0   00064
PHYGetShortRAMAddr@toReturn               cstackBANK0   00063
PHYSetLongRAMAddr@address                 cstackBANK0   00062
PHYSetLongRAMAddr@tmpRFIE                 cstackBANK0   00067
PHYSetLongRAMAddr@value                   cstackBANK0   00064
PHYSetShortRAMAddr@address                cstackBANK0   00063
PHYSetShortRAMAddr@tmpRFIE                cstackBANK0   00064
PHYSetShortRAMAddr@value                  cstackBANK0   00062
PrintTempLCD@temp                         cstackBANK0   00092
PrintTempLCD@tempF                        cstackBANK0   00091
RangeDemo@Pkt_Loss_Cnt                    cstackBANK1   001D9
RangeDemo@Run_Demo                        cstackBANK1   001E3
RangeDemo@Tx_Packet                       cstackBANK1   001D8
RangeDemo@pktCmd                          cstackBANK1   001D7
RangeDemo@rssi                            cstackBANK1   001E4
RangeDemo@switch_val                      cstackBANK1   001DE
RangeDemo@tick1                           cstackBANK1   001DF
RangeDemo@tick2                           cstackBANK1   001DA
ReadTempSensor@VBGResult                  cstackBANK0   0008A
ReadTempSensor@i                          cstackBANK0   00099
ReadTempSensor@temp                       cstackBANK0   00092
ReadTempSensor@tempArray                  cstackBANK0   0008C
ReadTempSensor@tempAverage                cstackBANK0   00096
ReadTempSensor@tempHere                   cstackBANK0   00095
ReadTempSensor@tempValue                  cstackBANK0   00090
Read_MAC_Address@i                        cstackBANK0   00068
RouteMessage@PANID                        cstackBANK0   000A5
RouteMessage@SecEn                        cstackBANK0   000A9
RouteMessage@ShortAddress                 cstackBANK0   000A7
RouteMessage@i                            cstackBANK0   000AE
RouteMessage@parentNode                   cstackBANK0   000AD
SPIPut2@i                                 cstackBANK0   00060
SPIPut2@v                                 cstackBANK0   00061
SPIPut@i                                  cstackBANK0   00060
SPIPut@v                                  cstackBANK0   00061
SSTGetID@dest                             cstackBANK0   00062
SaveIndirectMessage@Broadcast             cstackBANK0   00072
SaveIndirectMessage@DestinationAddress    cstackBANK0   0006C
SaveIndirectMessage@DestinationPANID      cstackBANK0   0006A
SaveIndirectMessage@SecurityEnabled       cstackBANK0   0006F
SaveIndirectMessage@i                     cstackBANK0   00074
SaveIndirectMessage@isAltAddress          cstackBANK0   0006E
SaveIndirectMessage@j                     cstackBANK0   00073
SearchForLongAddress@i                    cstackBANK0   00065
SearchForLongAddress@j                    cstackBANK0   00064
SearchForShortAddress@i                   cstackBANK0   00062
SelfTest@Tx_Success                       cstackBANK1   001DE
SelfTest@Tx_Trials                        cstackBANK1   001DC
SelfTest@myChannel                        cstackBANK1   001DF
SelfTest@scanresult                       cstackBANK1   001DD
SendBeacon@i                              cstackBANK0   000A4
SendIndirectPacket@Address                cstackBANK0   000A4
SendIndirectPacket@AltAddress             cstackBANK0   000A6
SendIndirectPacket@i                      cstackBANK0   000AE
SendIndirectPacket@index                  cstackBANK0   000AD
SendIndirectPacket@isAltAddress           cstackBANK0   000A8
SendIndirectPacket@j                      cstackBANK0   000AC
SendIndirectPacket@packetType             cstackBANK0   000AB
SendMACPacket@Address                     cstackBANK0   0009F
SendMACPacket@ModeMask                    cstackBANK0   000A2
SendMACPacket@PANID                       cstackBANK0   0009D
SendMACPacket@PacketType                  cstackBANK0   000A1
TempDemo@Run_Demo                         cstackBANK1   001E1
TempDemo@VBGResult                        cstackBANK1   001DA
TempDemo@i                                cstackBANK1   001EA
TempDemo@switch_val                       cstackBANK1   001E0
TempDemo@temp                             cstackBANK1   001D7
TempDemo@tick1                            cstackBANK1   001E6
TempDemo@tick2                            cstackBANK1   001E2
TempDemo@tick3                            cstackBANK1   001DC
UnicastShortAddress@DestAddress           cstackBANK0   000AF
_ADCON0                                   (abs)         00FC2
_ADCON0bits                               (abs)         00FC2
_ADCON1                                   (abs)         00FC1
_ADRES                                    (abs)         00FC3
_ANCON0                                   (abs)         00F48
_ANCON1                                   (abs)         00F49
_ANCON1bits                               (abs)         00F49
_AcknowledgementAddr                      bssBANK1      0014D
_AcknowledgementSeq                       dataBANK1     001F5
_ActiveScanResultIndex                    bssCOMRAM     00035
_ActiveScanResults                        bssBANK2      00200
_AddNodeToNetworkTable                    text77        087B2
_AdditionalNodeID                         bssCOMRAM     00036
_BUTTON_Pressed                           text41        08088
_BankIndex                                dataCOMRAM    00040
_BroadcastJitter                          text74        08D12
_BroadcastRecords                         bssBANK1      00100
_ConnMode                                 bssCOMRAM     00037
_ConnectionEntry                          bssBANK1      00153
_ConnectionTable                          bssBANK2      0025A
_CurrentNodeIndex                         bssCOMRAM     00038
_DELAY_10us                               text13        09076
_DELAY_ms                                 text37        08E7A
_EECON2                                   (abs)         00FA7
_EEPROMRead                               text21        09900
_EEPROM_Val                               bssBANK1      001CD
_IEEESeqNum                               bssBANK1      00154
_INTCON2bits                              (abs)         00FF1
_INTCONbits                               (abs)         00FF2
_InitMRF24J40                             text64        06AEA
_InitSymbolTimer                          text48        09BF8
_LATAbits                                 (abs)         00F89
_LATCbits                                 (abs)         00F8B
_LATDbits                                 (abs)         00F8C
_LATEbits                                 (abs)         00F8D
_LCDText                                  bssBANK1      00191
_LCD_BacklightOFF                         text40        09C7C
_LCD_BacklightON                          text39        09C78
_LCD_Display                              text25        09626
_LCD_Erase                                text33        098C6
_LCD_Initialize                           text19        092B0
_LCD_Update                               text31        08FCE
_LCD_WriteCmd                             text35        09C22
_LCD_WriteData                            text32        09C0E
_MACCurrentChannel                        bssBANK1      00155
_MACInitParams                            bssBANK1      0014A
_MACRxPacket                              bssCOMRAM     00021
_MAC_PANID                                bssBANK1      001D0
_MRF24J40Status                           bssCOMRAM     00039
_MTP                                      bssCOMRAM     0002C
_MiApp_BroadcastPacket                    text15        089C4
_MiApp_ConnectionMode                     text83        09A94
_MiApp_DiscardMessage                     text81        09C70
_MiApp_EstablishConnection                text49        05610
_MiApp_MessageAvailable                   text53        09C36
_MiApp_NoiseDetection                     text43        0798E
_MiApp_ProtocolInit                       text46        07DA4
_MiApp_SearchConnection                   text52        0754A
_MiApp_SetChannel                         text69        09B66
_MiApp_StartConnection                    text42        088BC
_MiApp_UnicastAddress                     text51        05FA8
_MiApp_UnicastConnection                  text24        0777E
_MiMAC_ChannelAssessment                  text45        097BE
_MiMAC_DiscardPacket                      text82        09BC2
_MiMAC_Init                               text47        09774
_MiMAC_ReceivedPacket                     text68        03F86
_MiMAC_SendPacket                         text62        05AE6
_MiMAC_SetAltAddress                      text63        09490
_MiMAC_SetChannel                         text70        0967C
_MiWiAckRequired                          bssBANK1      00156
_MiWiCapacityInfo                         bssBANK1      00157
_MiWiSeqNum                               bssCOMRAM     0003A
_MiWiStateMachine                         bssCOMRAM     00033
_MiWiTasks                                text54        001F6
_MiWi_TickGet                             text76        09420
_NetFreezerEnable                         bssBANK1      00158
_NodeTemp                                 bssBANK2      0023C
_OSCCON                                   (abs)         00FD3
_OSCTUNEbits                              (abs)         00F9B
_OpenSocket                               text50        063EA
_PHYGetLongRAMAddr                        text66        094FE
_PHYGetShortRAMAddr                       text65        0996E
_PHYSetLongRAMAddr                        text72        095C4
_PHYSetShortRAMAddr                       text71        099D8
_PIE1bits                                 (abs)         00F9D
_PIR1bits                                 (abs)         00F9E
_PIR3bits                                 (abs)         00FA4
_PORTBbits                                (abs)         00F81
_PPSCONbits                               (abs)         00EFF
_PrintTempLCD                             text14        07B9E
_RPINR1                                   (abs)         00EE7
_RPINR21                                  (abs)         00EFB
_RPOR19                                   (abs)         00ED9
_RPOR21                                   (abs)         00EDB
_RangeDemo                                text23        04BF2
_ReadTempSensor                           text3         0705A
_Read_MAC_Address                         text20        08598
_Read_VBGVoltage                          text2         0988A
_RouteMessage                             text56        05134
_RouterFailures                           bssBANK1      0012A
_RoutingTable                             bssBANK1      00132
_RxBuffer                                 bssBANK3      00300
_SPIGet                                   text67        09C5C
_SPIGet2                                  text22        09C52
_SPIPut                                   text73        09BA6
_SPIPut2                                  text36        09B8A
_SSP1BUF                                  (abs)         00FC9
_SSP1CON1                                 (abs)         00FC6
_SSP1CON1bits                             (abs)         00FC6
_SSP1STAT                                 (abs)         00FC7
_SSP2BUF                                  (abs)         00F75
_SSP2CON1                                 (abs)         00F72
_SSP2CON1bits                             (abs)         00F72
_SSP2STAT                                 (abs)         00F73
_SSTGetID                                 text17        09A68
_SST_Val                                  bssBANK1      001D6
_SYSTEM_Initialize                        text18        08DCC
_SaveIndirectMessage                      text58        06DAA
_ScanTime                                 mediumconst   0FBA7
_SearchForLongAddress                     text80        08AC0
_SearchForShortAddress                    text79        09228
_SelfTest                                 text16        067D2
_SendBeacon                               text57        08470
_SendIndirectPacket                       text59        03828
_SendMACPacket                            text61        08F24
_T1CON                                    (abs)         00FCD
_T1CONbits                                (abs)         00FCD
_TMR0L                                    (abs)         00FD6
_TMR1H                                    (abs)         00FCF
_TMR1L                                    (abs)         00FCE
_TRISAbits                                (abs)         00F92
_TRISBbits                                (abs)         00F93
_TRISCbits                                (abs)         00F94
_TRISDbits                                (abs)         00F95
_TRISEbits                                (abs)         00F96
_TempDemo                                 text1         04658
_TxBuffer                                 bssBANK1      0015E
_TxData                                   bssBANK0      000FA
_UnicastShortAddress                      text55        09110
_UserInterruptHandler                     text90        09C80
_WDTCONbits                               (abs)         00FC0
__CFG_CPUDIV$OSC3_PLL3                    (abs)         00000
__CFG_OSC$INTOSCPLL                       (abs)         00000
__CFG_PLLDIV$2                            (abs)         00000
__CFG_WDTEN$OFF                           (abs)         00000
__CFG_WDTPS$2048                          (abs)         00000
__CFG_XINST$OFF                           (abs)         00000
__HRAM                                    (abs)         00000
__Habs1                                   abs1          00000
__Hbank0                                  bank0         00000
__Hbank1                                  bank1         00000
__Hbank10                                 bank10        00000
__Hbank11                                 bank11        00000
__Hbank12                                 bank12        00000
__Hbank13                                 bank13        00000
__Hbank14                                 bank14        00000
__Hbank2                                  bank2         00000
__Hbank3                                  bank3         00000
__Hbank4                                  bank4         00000
__Hbank5                                  bank5         00000
__Hbank6                                  bank6         00000
__Hbank7                                  bank7         00000
__Hbank8                                  bank8         00000
__Hbank9                                  bank9         00000
__Hbigbss                                 bigbss        00000
__Hbigdata                                bigdata       00000
__Hbigram                                 bigram        00000
__Hbss                                    bss           00000
__HbssBANK0                               bssBANK0      00000
__HbssBANK1                               bssBANK1      00000
__HbssBANK2                               bssBANK2      00000
__HbssBANK3                               bssBANK3      00000
__HbssBANK4                               bssBANK4      00000
__HbssCOMRAM                              bssCOMRAM     00000
__Hcinit                                  cinit         00000
__Hclrtext                                clrtext       00000
__Hcomram                                 comram        00000
__Hconfig                                 config        10000
__Hconst                                  const         00000
__HcstackBANK0                            cstackBANK0   00000
__HcstackBANK1                            cstackBANK1   00000
__HcstackBANK3                            cstackBANK3   00000
__HcstackCOMRAM                           cstackCOMRAM  00000
__Hdata                                   data          00000
__HdataBANK1                              dataBANK1     00000
__HdataCOMRAM                             dataCOMRAM    00000
__Hend_init                               end_init      001F6
__Hfarbss                                 farbss        00000
__Hfardata                                fardata       00000
__Hibigdata                               ibigdata      00000
__Hidata                                  idata         00000
__HidataBANK1                             idataBANK1    00000
__HidataCOMRAM                            idataCOMRAM   00000
__Hidloc                                  idloc         00000
__Hifardata                               ifardata      00000
__Hinit                                   init          001F2
__Hintcode                                intcode       001F2
__Hintcode_body                           intcode_body  00000
__Hintcodelo                              intcodelo     001F2
__Hintentry                               intentry      00000
__Hintret                                 intret        00000
__Hintsave_regs                           intsave_regs  00000
__Hirdata                                 irdata        00000
__Hjflash_buffer                          jflash_buffer 0F800
__Hmediumconst                            mediumconst   0FFF8
__HnvFARRAM                               nvFARRAM      00000
__Hnvbit                                  nvbit         00000
__Hnvrram                                 nvrram        00000
__Hparam                                  rparam        00000
__Hpowerup                                powerup       001F2
__Hram                                    ram           00000
__Hramtop                                 ramtop        00F00
__Hrbit                                   rbit          00000
__Hrbss                                   rbss          00000
__Hrdata                                  rdata         00000
__Hreset_vec                              reset_vec     00004
__Hrparam                                 rparam        00000
__Hsfr                                    sfr           00000
__Hsmallconst                             smallconst    00000
__Hspace_0                                (abs)         10000
__Hspace_1                                (abs)         00486
__Hspace_2                                (abs)         00000
__Hstack                                  stack         00000
__Hstruct                                 struct        00000
__Htemp                                   temp          00042
__Htext                                   text          00000
__Htext0                                  text0         00000
__Htext1                                  text1         00000
__Htext10                                 text10        00000
__Htext11                                 text11        00000
__Htext12                                 text12        00000
__Htext13                                 text13        00000
__Htext14                                 text14        00000
__Htext15                                 text15        00000
__Htext16                                 text16        00000
__Htext17                                 text17        00000
__Htext18                                 text18        00000
__Htext19                                 text19        00000
__Htext2                                  text2         00000
__Htext20                                 text20        00000
__Htext21                                 text21        00000
__Htext22                                 text22        00000
__Htext23                                 text23        00000
__Htext24                                 text24        00000
__Htext25                                 text25        00000
__Htext26                                 text26        00000
__Htext27                                 text27        00000
__Htext28                                 text28        00000
__Htext29                                 text29        00000
__Htext3                                  text3         00000
__Htext30                                 text30        00000
__Htext31                                 text31        00000
__Htext32                                 text32        00000
__Htext33                                 text33        00000
__Htext34                                 text34        00000
__Htext35                                 text35        00000
__Htext36                                 text36        00000
__Htext37                                 text37        00000
__Htext38                                 text38        00000
__Htext39                                 text39        00000
__Htext4                                  text4         00000
__Htext40                                 text40        00000
__Htext41                                 text41        00000
__Htext42                                 text42        00000
__Htext43                                 text43        00000
__Htext44                                 text44        00000
__Htext45                                 text45        00000
__Htext46                                 text46        00000
__Htext47                                 text47        00000
__Htext48                                 text48        00000
__Htext49                                 text49        00000
__Htext5                                  text5         00000
__Htext50                                 text50        00000
__Htext51                                 text51        00000
__Htext52                                 text52        00000
__Htext53                                 text53        00000
__Htext54                                 text54        00000
__Htext55                                 text55        00000
__Htext56                                 text56        00000
__Htext57                                 text57        00000
__Htext58                                 text58        00000
__Htext59                                 text59        00000
__Htext6                                  text6         00000
__Htext60                                 text60        00000
__Htext61                                 text61        00000
__Htext62                                 text62        00000
__Htext63                                 text63        00000
__Htext64                                 text64        00000
__Htext65                                 text65        00000
__Htext66                                 text66        00000
__Htext67                                 text67        00000
__Htext68                                 text68        00000
__Htext69                                 text69        00000
__Htext7                                  text7         00000
__Htext70                                 text70        00000
__Htext71                                 text71        00000
__Htext72                                 text72        00000
__Htext73                                 text73        00000
__Htext74                                 text74        00000
__Htext75                                 text75        00000
__Htext76                                 text76        00000
__Htext77                                 text77        00000
__Htext78                                 text78        00000
__Htext79                                 text79        00000
__Htext8                                  text8         00000
__Htext80                                 text80        00000
__Htext81                                 text81        00000
__Htext82                                 text82        00000
__Htext83                                 text83        00000
__Htext85                                 text85        00000
__Htext86                                 text86        00000
__Htext87                                 text87        00000
__Htext88                                 text88        00000
__Htext89                                 text89        00000
__Htext9                                  text9         00000
__Htext90                                 text90        00000
__LRAM                                    (abs)         00001
__Labs1                                   abs1          00000
__Lbank0                                  bank0         00000
__Lbank1                                  bank1         00000
__Lbank10                                 bank10        00000
__Lbank11                                 bank11        00000
__Lbank12                                 bank12        00000
__Lbank13                                 bank13        00000
__Lbank14                                 bank14        00000
__Lbank2                                  bank2         00000
__Lbank3                                  bank3         00000
__Lbank4                                  bank4         00000
__Lbank5                                  bank5         00000
__Lbank6                                  bank6         00000
__Lbank7                                  bank7         00000
__Lbank8                                  bank8         00000
__Lbank9                                  bank9         00000
__Lbigbss                                 bigbss        00000
__Lbigdata                                bigdata       00000
__Lbigram                                 bigram        00000
__Lbss                                    bss           00000
__LbssBANK0                               bssBANK0      00000
__LbssBANK1                               bssBANK1      00000
__LbssBANK2                               bssBANK2      00000
__LbssBANK3                               bssBANK3      00000
__LbssBANK4                               bssBANK4      00000
__LbssCOMRAM                              bssCOMRAM     00000
__Lcinit                                  cinit         00000
__Lclrtext                                clrtext       00000
__Lcomram                                 comram        00000
__Lconfig                                 config        0FFF8
__Lconst                                  const         00000
__LcstackBANK0                            cstackBANK0   00000
__LcstackBANK1                            cstackBANK1   00000
__LcstackBANK3                            cstackBANK3   00000
__LcstackCOMRAM                           cstackCOMRAM  00000
__Ldata                                   data          00000
__LdataBANK1                              dataBANK1     00000
__LdataCOMRAM                             dataCOMRAM    00000
__Lend_init                               end_init      001F2
__Lfarbss                                 farbss        00000
__Lfardata                                fardata       00000
__Libigdata                               ibigdata      00000
__Lidata                                  idata         00000
__LidataBANK1                             idataBANK1    00000
__LidataCOMRAM                            idataCOMRAM   00000
__Lidloc                                  idloc         00000
__Lifardata                               ifardata      00000
__Linit                                   init          001F2
__Lintcode                                intcode       00008
__Lintcode_body                           intcode_body  00000
__Lintcodelo                              intcodelo     001F2
__Lintentry                               intentry      00000
__Lintret                                 intret        00000
__Lintsave_regs                           intsave_regs  00000
__Lirdata                                 irdata        00000
__Ljflash_buffer                          jflash_buffer 0F800
__Lmediumconst                            mediumconst   0FBA6
__LnvFARRAM                               nvFARRAM      00000
__Lnvbit                                  nvbit         00000
__Lnvrram                                 nvrram        00000
__Lparam                                  rparam        00000
__Lpowerup                                powerup       001F2
__Lram                                    ram           00000
__Lramtop                                 ramtop        00F00
__Lrbit                                   rbit          00000
__Lrbss                                   rbss          00000
__Lrdata                                  rdata         00000
__Lreset_vec                              reset_vec     00000
__Lrparam                                 rparam        00000
__Lsfr                                    sfr           00000
__Lsmallconst                             smallconst    00000
__Lspace_0                                (abs)         00000
__Lspace_1                                (abs)         00000
__Lspace_2                                (abs)         00000
__Lstack                                  stack         00000
__Lstruct                                 struct        00000
__Ltemp                                   temp          00041
__Ltext                                   text          00000
__Ltext0                                  text0         00000
__Ltext1                                  text1         00000
__Ltext10                                 text10        00000
__Ltext11                                 text11        00000
__Ltext12                                 text12        00000
__Ltext13                                 text13        00000
__Ltext14                                 text14        00000
__Ltext15                                 text15        00000
__Ltext16                                 text16        00000
__Ltext17                                 text17        00000
__Ltext18                                 text18        00000
__Ltext19                                 text19        00000
__Ltext2                                  text2         00000
__Ltext20                                 text20        00000
__Ltext21                                 text21        00000
__Ltext22                                 text22        00000
__Ltext23                                 text23        00000
__Ltext24                                 text24        00000
__Ltext25                                 text25        00000
__Ltext26                                 text26        00000
__Ltext27                                 text27        00000
__Ltext28                                 text28        00000
__Ltext29                                 text29        00000
__Ltext3                                  text3         00000
__Ltext30                                 text30        00000
__Ltext31                                 text31        00000
__Ltext32                                 text32        00000
__Ltext33                                 text33        00000
__Ltext34                                 text34        00000
__Ltext35                                 text35        00000
__Ltext36                                 text36        00000
__Ltext37                                 text37        00000
__Ltext38                                 text38        00000
__Ltext39                                 text39        00000
__Ltext4                                  text4         00000
__Ltext40                                 text40        00000
__Ltext41                                 text41        00000
__Ltext42                                 text42        00000
__Ltext43                                 text43        00000
__Ltext44                                 text44        00000
__Ltext45                                 text45        00000
__Ltext46                                 text46        00000
__Ltext47                                 text47        00000
__Ltext48                                 text48        00000
__Ltext49                                 text49        00000
__Ltext5                                  text5         00000
__Ltext50                                 text50        00000
__Ltext51                                 text51        00000
__Ltext52                                 text52        00000
__Ltext53                                 text53        00000
__Ltext54                                 text54        00000
__Ltext55                                 text55        00000
__Ltext56                                 text56        00000
__Ltext57                                 text57        00000
__Ltext58                                 text58        00000
__Ltext59                                 text59        00000
__Ltext6                                  text6         00000
__Ltext60                                 text60        00000
__Ltext61                                 text61        00000
__Ltext62                                 text62        00000
__Ltext63                                 text63        00000
__Ltext64                                 text64        00000
__Ltext65                                 text65        00000
__Ltext66                                 text66        00000
__Ltext67                                 text67        00000
__Ltext68                                 text68        00000
__Ltext69                                 text69        00000
__Ltext7                                  text7         00000
__Ltext70                                 text70        00000
__Ltext71                                 text71        00000
__Ltext72                                 text72        00000
__Ltext73                                 text73        00000
__Ltext74                                 text74        00000
__Ltext75                                 text75        00000
__Ltext76                                 text76        00000
__Ltext77                                 text77        00000
__Ltext78                                 text78        00000
__Ltext79                                 text79        00000
__Ltext8                                  text8         00000
__Ltext80                                 text80        00000
__Ltext81                                 text81        00000
__Ltext82                                 text82        00000
__Ltext83                                 text83        00000
__Ltext85                                 text85        00000
__Ltext86                                 text86        00000
__Ltext87                                 text87        00000
__Ltext88                                 text88        00000
__Ltext89                                 text89        00000
__Ltext9                                  text9         00000
__Ltext90                                 text90        00000
__S0                                      (abs)         10000
__S1                                      (abs)         00486
__S2                                      (abs)         00000
___awdiv                                  text44        08C54
___awdiv@counter                          cstackBANK0   00064
___awdiv@dividend                         cstackBANK0   00060
___awdiv@divisor                          cstackBANK0   00062
___awdiv@quotient                         cstackBANK0   00066
___awdiv@sign                             cstackBANK0   00065
___ftadd                                  text11        072E2
___ftadd@exp1                             cstackBANK0   0007A
___ftadd@exp2                             cstackBANK0   00079
___ftadd@f1                               cstackBANK0   0006F
___ftadd@f2                               cstackBANK0   00072
___ftadd@sign                             cstackBANK0   00078
___ftdiv                                  text10        081E0
___ftdiv@cntr                             cstackBANK0   00084
___ftdiv@exp                              cstackBANK0   00088
___ftdiv@f1                               cstackBANK0   0007B
___ftdiv@f2                               cstackBANK0   0007E
___ftdiv@f3                               cstackBANK0   00085
___ftdiv@sign                             cstackBANK0   00089
___ftge                                   text9         08B8C
___ftge@ff1                               cstackBANK0   00060
___ftge@ff2                               cstackBANK0   00063
___ftmul                                  text8         07F2A
___ftmul@cntr                             cstackBANK0   00088
___ftmul@exp                              cstackBANK0   00084
___ftmul@f1                               cstackBANK0   0007B
___ftmul@f2                               cstackBANK0   0007E
___ftmul@f3_as_product                    cstackBANK0   00085
___ftmul@sign                             cstackBANK0   00089
___ftneg                                  text7         09A0A
___ftneg@f1                               cstackBANK0   0006C
___ftpack                                 text12        086A6
___ftpack@arg                             cstackBANK0   00060
___ftpack@exp                             cstackBANK0   00063
___ftpack@sign                            cstackBANK0   00064
___fttol                                  text6         0832C
___fttol@exp1                             cstackBANK0   0006E
___fttol@f1                               cstackBANK0   00060
___fttol@lval                             cstackBANK0   0006A
___fttol@sign1                            cstackBANK0   00069
___inthi_sp                               stack         00000
___intlo_sp                               stack         00000
___lbmod                                  text75        09806
___lbmod@counter                          cstackBANK0   00062
___lbmod@dividend                         cstackBANK0   00061
___lbmod@divisor                          cstackBANK0   00060
___lbmod@rem                              cstackBANK0   00063
___lbtoft                                 text5         09A3A
___lbtoft@c                               cstackBANK0   0006B
___lmul                                   text38        093AA
___lmul@multiplicand                      cstackBANK0   00064
___lmul@multiplier                        cstackBANK0   00060
___lmul@product                           cstackBANK0   00068
___lwdiv                                  text30        09332
___lwdiv@counter                          cstackBANK0   00064
___lwdiv@dividend                         cstackBANK0   00060
___lwdiv@divisor                          cstackBANK0   00062
___lwdiv@quotient                         cstackBANK0   00065
___lwmod                                  text29        09562
___lwmod@counter                          cstackBANK0   0006B
___lwmod@dividend                         cstackBANK0   00067
___lwmod@divisor                          cstackBANK0   00069
___lwtoft                                 text4         09AC0
___lwtoft@c                               cstackBANK0   00068
___param_bank                             (abs)         00010
___rparam_used                            (abs)         00001
___sp                                     stack         00000
___wmul                                   text28        09938
___wmul@multiplicand                      cstackBANK0   00062
___wmul@multiplier                        cstackBANK0   00060
___wmul@product                           cstackBANK0   00064
__accesstop                               (abs)         00060
__activetblptr                            (abs)         00002
__end_of_AddNodeToNetworkTable            text77        088BC
__end_of_BUTTON_Pressed                   text41        081E0
__end_of_BroadcastJitter                  text74        08DCC
__end_of_DELAY_10us                       text13        09110
__end_of_DELAY_ms                         text37        08F24
__end_of_EEPROMRead                       text21        09938
__end_of_InitMRF24J40                     text64        06DAA
__end_of_InitSymbolTimer                  text48        09C0E
__end_of_LCD_BacklightOFF                 text40        09C80
__end_of_LCD_BacklightON                  text39        09C7C
__end_of_LCD_Display                      text25        0967C
__end_of_LCD_Erase                        text33        09900
__end_of_LCD_Initialize                   text19        09332
__end_of_LCD_Update                       text31        09076
__end_of_LCD_WriteCmd                     text35        09C36
__end_of_LCD_WriteData                    text32        09C22
__end_of_MiApp_BroadcastPacket            text15        08AC0
__end_of_MiApp_ConnectionMode             text83        09AC0
__end_of_MiApp_DiscardMessage             text81        09C78
__end_of_MiApp_EstablishConnection        text49        05AE6
__end_of_MiApp_MessageAvailable           text53        09C46
__end_of_MiApp_NoiseDetection             text43        07B9E
__end_of_MiApp_ProtocolInit               text46        07F2A
__end_of_MiApp_SearchConnection           text52        0777E
__end_of_MiApp_SetChannel                 text69        09B8A
__end_of_MiApp_StartConnection            text42        089C4
__end_of_MiApp_UnicastAddress             text51        063EA
__end_of_MiApp_UnicastConnection          text24        0798E
__end_of_MiMAC_ChannelAssessment          text45        09806
__end_of_MiMAC_DiscardPacket              text82        09BDE
__end_of_MiMAC_Init                       text47        097BE
__end_of_MiMAC_ReceivedPacket             text68        04658
__end_of_MiMAC_SendPacket                 text62        05FA8
__end_of_MiMAC_SetAltAddress              text63        094FE
__end_of_MiMAC_SetChannel                 text70        096D0
__end_of_MiWiTasks                        text54        01DE8
__end_of_MiWi_TickGet                     text76        09490
__end_of_OpenSocket                       text50        067D2
__end_of_PHYGetLongRAMAddr                text66        09562
__end_of_PHYGetShortRAMAddr               text65        099A4
__end_of_PHYSetLongRAMAddr                text72        09626
__end_of_PHYSetShortRAMAddr               text71        09A0A
__end_of_PrintTempLCD                     text14        07DA4
__end_of_RangeDemo                        text23        05134
__end_of_ReadTempSensor                   text3         072E2
__end_of_Read_MAC_Address                 text20        086A6
__end_of_Read_VBGVoltage                  text2         098C6
__end_of_RouteMessage                     text56        05610
__end_of_SPIGet                           text67        09C66
__end_of_SPIGet2                          text22        09C5C
__end_of_SPIPut                           text73        09BC2
__end_of_SPIPut2                          text36        09BA6
__end_of_SSTGetID                         text17        09A94
__end_of_SYSTEM_Initialize                text18        08E7A
__end_of_SaveIndirectMessage              text58        0705A
__end_of_ScanTime                         mediumconst   0FBE3
__end_of_SearchForLongAddress             text80        08B8C
__end_of_SearchForShortAddress            text79        092B0
__end_of_SelfTest                         text16        06AEA
__end_of_SendBeacon                       text57        08598
__end_of_SendIndirectPacket               text59        03F86
__end_of_SendMACPacket                    text61        08FCE
__end_of_TempDemo                         text1         04BF2
__end_of_UnicastShortAddress              text55        0919E
__end_of_UserInterruptHandler             text90        09C82
__end_of___awdiv                          text44        08D12
__end_of___ftadd                          text11        0754A
__end_of___ftdiv                          text10        0832C
__end_of___ftge                           text9         08C54
__end_of___ftmul                          text8         08088
__end_of___ftneg                          text7         09A3A
__end_of___ftpack                         text12        087B2
__end_of___fttol                          text6         08470
__end_of___lbmod                          text75        0984A
__end_of___lbtoft                         text5         09A68
__end_of___lmul                           text38        09420
__end_of___lwdiv                          text30        093AA
__end_of___lwmod                          text29        095C4
__end_of___lwtoft                         text4         09AEA
__end_of___wmul                           text28        0996E
__end_of__initialization                  cinit         0921A
__end_of_dpowers                          mediumconst   0FBF9
__end_of_findNextNetworkEntry             text78        0988A
__end_of_hexpowers                        mediumconst   0FC01
__end_of_high_isr                         intcode       001F2
__end_of_isSameAddress                    text60        09722
__end_of_isdigit                          text27        09B14
__end_of_main                             text0         02DEA
__end_of_memset                           text34        099D8
__end_of_octpowers                        mediumconst   0FBEF
__end_of_sprintf                          text26        03828
__end_ofi2_PHYGetLongRAMAddr              text87        09774
__end_ofi2_PHYGetShortRAMAddr             text86        09B3E
__end_ofi2_PHYSetShortRAMAddr             text85        09B66
__end_ofi2_SPIGet                         text88        09C70
__end_ofi2_SPIPut                         text89        09BF8
__initialization                          cinit         0919E
__mediumconst                             mediumconst   0FBA6
__pbssBANK0                               bssBANK0      000FA
__pbssBANK1                               bssBANK1      00100
__pbssBANK2                               bssBANK2      00200
__pbssBANK3                               bssBANK3      00300
__pbssBANK4                               bssBANK4      00400
__pbssCOMRAM                              bssCOMRAM     00021
__pcinit                                  cinit         0919E
__pcstackBANK0                            cstackBANK0   00060
__pcstackBANK1                            cstackBANK1   001D7
__pcstackBANK3                            cstackBANK3   003A0
__pcstackCOMRAM                           cstackCOMRAM  00001
__pdataBANK1                              dataBANK1     001F5
__pdataCOMRAM                             dataCOMRAM    00040
__pidataBANK1                             idataBANK1    09C46
__pidataCOMRAM                            idataCOMRAM   09C82
__pintcode                                intcode       00008
__pmediumconst                            mediumconst   0FBA6
__ptext0                                  text0         01DE8
__ptext1                                  text1         04658
__ptext10                                 text10        081E0
__ptext11                                 text11        072E2
__ptext12                                 text12        086A6
__ptext13                                 text13        09076
__ptext14                                 text14        07B9E
__ptext15                                 text15        089C4
__ptext16                                 text16        067D2
__ptext17                                 text17        09A68
__ptext18                                 text18        08DCC
__ptext19                                 text19        092B0
__ptext2                                  text2         0988A
__ptext20                                 text20        08598
__ptext21                                 text21        09900
__ptext22                                 text22        09C52
__ptext23                                 text23        04BF2
__ptext24                                 text24        0777E
__ptext25                                 text25        09626
__ptext26                                 text26        02DEA
__ptext27                                 text27        09AEA
__ptext28                                 text28        09938
__ptext29                                 text29        09562
__ptext3                                  text3         0705A
__ptext30                                 text30        09332
__ptext31                                 text31        08FCE
__ptext32                                 text32        09C0E
__ptext33                                 text33        098C6
__ptext34                                 text34        099A4
__ptext35                                 text35        09C22
__ptext36                                 text36        09B8A
__ptext37                                 text37        08E7A
__ptext38                                 text38        093AA
__ptext39                                 text39        09C78
__ptext4                                  text4         09AC0
__ptext40                                 text40        09C7C
__ptext41                                 text41        08088
__ptext42                                 text42        088BC
__ptext43                                 text43        0798E
__ptext44                                 text44        08C54
__ptext45                                 text45        097BE
__ptext46                                 text46        07DA4
__ptext47                                 text47        09774
__ptext48                                 text48        09BF8
__ptext49                                 text49        05610
__ptext5                                  text5         09A3A
__ptext50                                 text50        063EA
__ptext51                                 text51        05FA8
__ptext52                                 text52        0754A
__ptext53                                 text53        09C36
__ptext54                                 text54        001F6
__ptext55                                 text55        09110
__ptext56                                 text56        05134
__ptext57                                 text57        08470
__ptext58                                 text58        06DAA
__ptext59                                 text59        03828
__ptext6                                  text6         0832C
__ptext60                                 text60        096D0
__ptext61                                 text61        08F24
__ptext62                                 text62        05AE6
__ptext63                                 text63        09490
__ptext64                                 text64        06AEA
__ptext65                                 text65        0996E
__ptext66                                 text66        094FE
__ptext67                                 text67        09C5C
__ptext68                                 text68        03F86
__ptext69                                 text69        09B66
__ptext7                                  text7         09A0A
__ptext70                                 text70        0967C
__ptext71                                 text71        099D8
__ptext72                                 text72        095C4
__ptext73                                 text73        09BA6
__ptext74                                 text74        08D12
__ptext75                                 text75        09806
__ptext76                                 text76        09420
__ptext77                                 text77        087B2
__ptext78                                 text78        0984A
__ptext79                                 text79        09228
__ptext8                                  text8         07F2A
__ptext80                                 text80        08AC0
__ptext81                                 text81        09C70
__ptext82                                 text82        09BC2
__ptext83                                 text83        09A94
__ptext85                                 text85        09B3E
__ptext86                                 text86        09B14
__ptext87                                 text87        09722
__ptext88                                 text88        09C66
__ptext89                                 text89        09BDE
__ptext9                                  text9         08B8C
__ptext90                                 text90        09C80
__ramtop                                  ramtop        00F00
__size_of_AddNodeToNetworkTable           (abs)         00000
__size_of_BUTTON_Pressed                  (abs)         00000
__size_of_BroadcastJitter                 (abs)         00000
__size_of_DELAY_10us                      (abs)         00000
__size_of_DELAY_ms                        (abs)         00000
__size_of_EEPROMRead                      (abs)         00000
__size_of_InitMRF24J40                    (abs)         00000
__size_of_InitSymbolTimer                 (abs)         00000
__size_of_LCD_BacklightOFF                (abs)         00000
__size_of_LCD_BacklightON                 (abs)         00000
__size_of_LCD_Display                     (abs)         00000
__size_of_LCD_Erase                       (abs)         00000
__size_of_LCD_Initialize                  (abs)         00000
__size_of_LCD_Update                      (abs)         00000
__size_of_LCD_WriteCmd                    (abs)         00000
__size_of_LCD_WriteData                   (abs)         00000
__size_of_MiApp_BroadcastPacket           (abs)         00000
__size_of_MiApp_ConnectionMode            (abs)         00000
__size_of_MiApp_DiscardMessage            (abs)         00000
__size_of_MiApp_EstablishConnection       (abs)         00000
__size_of_MiApp_MessageAvailable          (abs)         00000
__size_of_MiApp_NoiseDetection            (abs)         00000
__size_of_MiApp_ProtocolInit              (abs)         00000
__size_of_MiApp_SearchConnection          (abs)         00000
__size_of_MiApp_SetChannel                (abs)         00000
__size_of_MiApp_StartConnection           (abs)         00000
__size_of_MiApp_UnicastAddress            (abs)         00000
__size_of_MiApp_UnicastConnection         (abs)         00000
__size_of_MiMAC_ChannelAssessment         (abs)         00000
__size_of_MiMAC_DiscardPacket             (abs)         00000
__size_of_MiMAC_Init                      (abs)         00000
__size_of_MiMAC_ReceivedPacket            (abs)         00000
__size_of_MiMAC_SendPacket                (abs)         00000
__size_of_MiMAC_SetAltAddress             (abs)         00000
__size_of_MiMAC_SetChannel                (abs)         00000
__size_of_MiWiTasks                       (abs)         00000
__size_of_MiWi_TickGet                    (abs)         00000
__size_of_OpenSocket                      (abs)         00000
__size_of_PHYGetLongRAMAddr               (abs)         00000
__size_of_PHYGetShortRAMAddr              (abs)         00000
__size_of_PHYSetLongRAMAddr               (abs)         00000
__size_of_PHYSetShortRAMAddr              (abs)         00000
__size_of_PrintTempLCD                    (abs)         00000
__size_of_RangeDemo                       (abs)         00000
__size_of_ReadTempSensor                  (abs)         00000
__size_of_Read_MAC_Address                (abs)         00000
__size_of_Read_VBGVoltage                 (abs)         00000
__size_of_RouteMessage                    (abs)         00000
__size_of_SPIGet                          (abs)         00000
__size_of_SPIGet2                         (abs)         00000
__size_of_SPIPut                          (abs)         00000
__size_of_SPIPut2                         (abs)         00000
__size_of_SSTGetID                        (abs)         00000
__size_of_SYSTEM_Initialize               (abs)         00000
__size_of_SaveIndirectMessage             (abs)         00000
__size_of_SearchForLongAddress            (abs)         00000
__size_of_SearchForShortAddress           (abs)         00000
__size_of_SelfTest                        (abs)         00000
__size_of_SendBeacon                      (abs)         00000
__size_of_SendIndirectPacket              (abs)         00000
__size_of_SendMACPacket                   (abs)         00000
__size_of_TempDemo                        (abs)         00000
__size_of_UnicastShortAddress             (abs)         00000
__size_of_UserInterruptHandler            (abs)         00000
__size_of___awdiv                         (abs)         00000
__size_of___ftadd                         (abs)         00000
__size_of___ftdiv                         (abs)         00000
__size_of___ftge                          (abs)         00000
__size_of___ftmul                         (abs)         00000
__size_of___ftneg                         (abs)         00000
__size_of___ftpack                        (abs)         00000
__size_of___fttol                         (abs)         00000
__size_of___lbmod                         (abs)         00000
__size_of___lbtoft                        (abs)         00000
__size_of___lmul                          (abs)         00000
__size_of___lwdiv                         (abs)         00000
__size_of___lwmod                         (abs)         00000
__size_of___lwtoft                        (abs)         00000
__size_of___wmul                          (abs)         00000
__size_of_findNextNetworkEntry            (abs)         00000
__size_of_high_isr                        (abs)         00000
__size_of_isSameAddress                   (abs)         00000
__size_of_isdigit                         (abs)         00000
__size_of_main                            (abs)         00000
__size_of_memset                          (abs)         00000
__size_of_sprintf                         (abs)         00000
__size_ofi2_PHYGetLongRAMAddr             (abs)         00000
__size_ofi2_PHYGetShortRAMAddr            (abs)         00000
__size_ofi2_PHYSetShortRAMAddr            (abs)         00000
__size_ofi2_SPIGet                        (abs)         00000
__size_ofi2_SPIPut                        (abs)         00000
__smallconst                              smallconst    00000
_currentChannel                           bssCOMRAM     0003F
_defaultHops                              dataBANK1     001F6
_dpowers                                  mediumconst   0FBEF
_failureCounter                           bssBANK1      0014F
_findNextNetworkEntry                     text78        0984A
_hexpowers                                mediumconst   0FBF9
_high_isr                                 intcode       00008
_indirectMessages                         bssBANK4      00400
_init_case                                bssBANK1      00159
_isSameAddress                            text60        096D0
_isdigit                                  text27        09AEA
_isdigit$4453                             cstackBANK0   00061
_knownCoordinators                        bssBANK1      0015A
_main                                     text0         01DE8
_memset                                   text34        099A4
_myChannel                                dataBANK1     001FF
_myLongAddress                            dataBANK1     001F7
_myNetworkAddress                         bssBANK1      001D2
_myPANID                                  bssBANK0      000FC
_myParent                                 bssBANK0      000FB
_myShortAddress                           bssBANK0      000FE
_octpowers                                mediumconst   0FBE3
_openSocketInfo                           bssBANK1      001B2
_role                                     bssCOMRAM     0003B
_rxMessage                                bssBANK1      00120
_sprintf                                  text26        02DEA
_sprintf$4232                             cstackBANK0   0007D
_sprintf$4233                             cstackBANK0   0007F
_sprintf$4239                             cstackBANK0   00081
_switch0PressTime                         bssBANK1      00142
_switch1PressTime                         bssBANK1      00146
_switch_val                               bssBANK1      0015B
_tempAverage                              bssBANK1      00151
_tempLongAddress                          bssBANK1      0013A
_tempNodeStatus                           bssBANK1      0015C
_tempPANID                                bssBANK1      001D4
_tempShortAddress                         bssCOMRAM     0003D
_timerExtension1                          bssCOMRAM     0003C
_timerExtension2                          bssBANK1      0015D
btemp                                     temp          00041
end_of_initialization                     cinit         0921A
findNextNetworkEntry@i                    cstackBANK0   00060
high_isr@RxBank                           cstackCOMRAM  0001F
high_isr@flags                            cstackCOMRAM  0001D
high_isr@i                                cstackCOMRAM  00020
high_isr@results                          cstackCOMRAM  0001C
i2PHYGetLongRAMAddr@address               cstackCOMRAM  00003
i2PHYGetLongRAMAddr@tmpRFIE               cstackCOMRAM  00008
i2PHYGetLongRAMAddr@toReturn              cstackCOMRAM  00007
i2PHYGetShortRAMAddr@address              cstackCOMRAM  00003
i2PHYGetShortRAMAddr@tmpRFIE              cstackCOMRAM  00005
i2PHYGetShortRAMAddr@toReturn             cstackCOMRAM  00004
i2PHYSetShortRAMAddr@address              cstackCOMRAM  00004
i2PHYSetShortRAMAddr@tmpRFIE              cstackCOMRAM  00005
i2PHYSetShortRAMAddr@value                cstackCOMRAM  00003
i2SPIPut@i                                cstackCOMRAM  00001
i2SPIPut@v                                cstackCOMRAM  00002
i2_PHYGetLongRAMAddr                      text87        09722
i2_PHYGetShortRAMAddr                     text86        09B14
i2_PHYSetShortRAMAddr                     text85        09B3E
i2_SPIGet                                 text88        09C66
i2_SPIPut                                 text89        09BDE
int$flags                                 temp          00041
intlevel0                                 text          00000
intlevel1                                 text          00000
intlevel2                                 text          00000
intlevel3                                 text          00000
isSameAddress@Address1                    cstackBANK0   00060
isSameAddress@Address2                    cstackBANK0   00062
isSameAddress@i                           cstackBANK0   00066
isdigit@c                                 cstackBANK0   00062
main@ConnectionsCount                     cstackBANK3   003AE
main@CoordCount                           cstackBANK3   003AF
main@NumberOfConnections                  cstackBANK3   003B0
main@Status                               cstackBANK3   003A8
main@count                                cstackBANK3   003AD
main@i                                    cstackBANK3   003B9
main@j                                    cstackBANK3   003B8
main@k                                    cstackBANK3   003B7
main@menu_choice                          cstackBANK3   003B5
main@nodeIndex                            cstackBANK3   003AA
main@pktCMD                               cstackBANK3   003B4
main@result                               cstackBANK3   003B2
main@result_3552                          cstackBANK3   003AB
main@scanresult                           cstackBANK3   003BA
main@select_channel                       cstackBANK3   003B1
main@skip_print                           cstackBANK3   003AC
main@switch_val                           cstackBANK3   003B6
main@switch_val_3548                      cstackBANK3   003B3
main@tick1                                cstackBANK3   003A0
main@tick2                                cstackBANK3   003A4
main@update_channel                       cstackBANK3   003A9
memset@c                                  cstackBANK0   00062
memset@n                                  cstackBANK0   00064
memset@p                                  cstackBANK0   00066
memset@p1                                 cstackBANK0   00060
sprintf@ap                                cstackBANK0   00085
sprintf@c                                 cstackBANK0   0008C
sprintf@cp                                cstackBANK0   0007B
sprintf@f                                 cstackBANK0   0006E
sprintf@flag                              cstackBANK0   0008D
sprintf@idx                               cstackBANK0   0007A
sprintf@len                               cstackBANK0   00083
sprintf@prec                              cstackBANK0   00089
sprintf@sp                                cstackBANK0   0006C
sprintf@val                               cstackBANK0   00087
sprintf@width                             cstackBANK0   0008A
stackhi                                   (abs)         00EBF
stacklo                                   (abs)         00486
start                                     init          001F2
start_initialization                      cinit         0919E


FUNCTION INFORMATION:

 *************** function _main *****************
 Defined at:
		line 106 in file "../src/main.c"
 Parameters:    Size  Location     Type
		None
 Auto vars:     Size  Location     Type
  count           1   13[BANK3 ] unsigned char 
  nodeIndex       1   10[BANK3 ] unsigned char 
  CoordCount      1   15[BANK3 ] unsigned char 
  Status          1    8[BANK3 ] unsigned char 
  skip_print      1   12[BANK3 ] unsigned char 
  ConnectionsC    1   14[BANK3 ] unsigned char 
  result          1   11[BANK3 ] unsigned char 
  k               1   23[BANK3 ] unsigned char 
  NumberOfConn    1   16[BANK3 ] unsigned char 
  scanresult      1   26[BANK3 ] volatile unsigned char 
  select_chann    1   17[BANK3 ] unsigned char 
  update_chann    1    9[BANK3 ] unsigned char 
  tick2           4    4[BANK3 ] struct _MIWI_TICK
  tick1           4    0[BANK3 ] struct _MIWI_TICK
  menu_choice     1   21[BANK3 ] unsigned char 
  pktCMD          1   20[BANK3 ] unsigned char 
  switch_val      1   19[BANK3 ] unsigned char 
  i               1   25[BANK3 ] unsigned char 
  j               1   24[BANK3 ] unsigned char 
  switch_val      1   22[BANK3 ] unsigned char 
  result          1   18[BANK3 ] unsigned char 
 Return value:  Size  Location     Type
		None               void
 Registers used:
		wreg, fsr0l, fsr0h, fsr1l, fsr1h, fsr2l, fsr2h, status,2, status,0, tblptrl, tblptrh, tblptru, prodl, prodh, cstack
 Tracked objects:
		On entry : 
		On exit  : 
		Unchanged: 
 Data sizes:     COMRAM   BANK0   BANK1   BANK2   BANK3   BANK4   BANK5   BANK6   BANK7   BANK8   BANK9  BANK10  BANK11  BANK12  BANK13  BANK14
      Params:         0       0       0       0       0       0       0       0       0       0       0       0       0       0       0       0
      Locals:         0       0       0       0      27       0       0       0       0       0       0       0       0       0       0       0
      Temps:          0       0       8       0       0       0       0       0       0       0       0       0       0       0       0       0
      Totals:         0       0       8       0      27       0       0       0       0       0       0       0       0       0       0       0
Total ram usage:       35 bytes
 Hardware stack levels required when called:   18
 This function calls:
		_BUTTON_Pressed
		_DELAY_ms
		_LCD_BacklightOFF
		_LCD_BacklightON
		_LCD_Display
		_LCD_Erase
		_LCD_Update
		_MiApp_BroadcastPacket
		_MiApp_ConnectionMode
		_MiApp_DiscardMessage
		_MiApp_EstablishConnection
		_MiApp_MessageAvailable
		_MiApp_ProtocolInit
		_MiApp_SearchConnection
		_MiApp_SetChannel
		_MiApp_StartConnection
		_MiApp_UnicastConnection
		_MiWi_TickGet
		_RangeDemo
		_Read_MAC_Address
		_SYSTEM_Initialize
		_SelfTest
		_TempDemo
		_sprintf
 This function is called by:
		Startup code after reset
 This function uses a non-reentrant model


 *************** function _TempDemo *****************
 Defined at:
		line 69 in file "../src/temp_demo.c"
 Parameters:    Size  Location     Type
		None
 Auto vars:     Size  Location     Type
  i               1   19[BANK1 ] unsigned char 
  tick1           4   15[BANK1 ] struct _MIWI_TICK
  tick2           4   11[BANK1 ] struct _MIWI_TICK
  tick3           4    5[BANK1 ] struct _MIWI_TICK
  temp            3    0[BANK1 ] struct _MIWI_TICK
  VBGResult       2    3[BANK1 ] unsigned int 
  Run_Demo        1   10[BANK1 ] unsigned char 
  switch_val      1    9[BANK1 ] unsigned char 
 Return value:  Size  Location     Type
		None               void
 Registers used:
		wreg, fsr0l, fsr0h, fsr1l, fsr1h, fsr2l, fsr2h, status,2, status,0, tblptrl, tblptrh, tblptru, prodl, prodh, cstack
 Tracked objects:
		On entry : 
		On exit  : 
		Unchanged: 
 Data sizes:     COMRAM   BANK0   BANK1   BANK2   BANK3   BANK4   BANK5   BANK6   BANK7   BANK8   BANK9  BANK10  BANK11  BANK12  BANK13  BANK14
      Params:         0       0       0       0       0       0       0       0       0       0       0       0       0       0       0       0
      Locals:         0       0      20       0       0       0       0       0       0       0       0       0       0       0       0       0
      Temps:          0       8       0       0       0       0       0       0       0       0       0       0       0       0       0       0
      Totals:         0       8      20       0       0       0       0       0       0       0       0       0       0       0       0       0
Total ram usage:       28 bytes
 Hardware stack levels used:    1
 Hardware stack levels required when called:   16
 This function calls:
		_BUTTON_Pressed
		_LCD_BacklightOFF
		_LCD_BacklightON
		_LCD_Display
		_MiApp_BroadcastPacket
		_MiApp_DiscardMessage
		_MiApp_MessageAvailable
		_MiApp_UnicastConnection
		_MiWi_TickGet
		_PrintTempLCD
		_ReadTempSensor
		_Read_VBGVoltage
		___fttol
		___lbtoft
		___wmul
 This function is called by:
		_main
 This function uses a non-reentrant model


 *************** function _Read_VBGVoltage *****************
 Defined at:
		line 384 in file "../src/temp_demo.c"
 Parameters:    Size  Location     Type
		None
 Auto vars:     Size  Location     Type
		None
 Return value:  Size  Location     Type
                  2   20[BANK0 ] unsigned int 
 Registers used:
		wreg, status,2, status,0, cstack
 Tracked objects:
		On entry : 
		On exit  : 
		Unchanged: 
 Data sizes:     COMRAM   BANK0   BANK1   BANK2   BANK3   BANK4   BANK5   BANK6   BANK7   BANK8   BANK9  BANK10  BANK11  BANK12  BANK13  BANK14
      Params:         0       2       0       0       0       0       0       0       0       0       0       0       0       0       0       0
      Locals:         0       0       0       0       0       0       0       0       0       0       0       0       0       0       0       0
      Temps:          0       0       0       0       0       0       0       0       0       0       0       0       0       0       0       0
      Totals:         0       2       0       0       0       0       0       0       0       0       0       0       0       0       0       0
Total ram usage:        2 bytes
 Hardware stack levels used:    1
 Hardware stack levels required when called:    6
 This function calls:
		_DELAY_10us
 This function is called by:
		_TempDemo
 This function uses a non-reentrant model


 *************** function _ReadTempSensor *****************
 Defined at:
		line 297 in file "../src/temp_demo.c"
 Parameters:    Size  Location     Type
  VBGResult       2   42[BANK0 ] unsigned int 
 Auto vars:     Size  Location     Type
  tempArray       4   44[BANK0 ] unsigned char [4]
  tempAverage     3   54[BANK0 ] float 
  temp            3   50[BANK0 ] float 
  tempValue       2   48[BANK0 ] unsigned int 
  i               1   57[BANK0 ] unsigned char 
  tempHere        1   53[BANK0 ] unsigned char 
 Return value:  Size  Location     Type
                  1    wreg      unsigned char 
 Registers used:
		wreg, fsr2l, fsr2h, status,2, status,0, prodl, prodh, cstack
 Tracked objects:
		On entry : 
		On exit  : 
		Unchanged: 
 Data sizes:     COMRAM   BANK0   BANK1   BANK2   BANK3   BANK4   BANK5   BANK6   BANK7   BANK8   BANK9  BANK10  BANK11  BANK12  BANK13  BANK14
      Params:         0       2       0       0       0       0       0       0       0       0       0       0       0       0       0       0
      Locals:         0      14       0       0       0       0       0       0       0       0       0       0       0       0       0       0
      Temps:          0       0       0       0       0       0       0       0       0       0       0       0       0       0       0       0
      Totals:         0      16       0       0       0       0       0       0       0       0       0       0       0       0       0       0
Total ram usage:       16 bytes
 Hardware stack levels used:    1
 Hardware stack levels required when called:    6
 This function calls:
		_DELAY_10us
		___ftadd
		___ftdiv
		___ftge
		___ftmul
		___ftneg
		___fttol
		___lbtoft
		___lwtoft
 This function is called by:
		_TempDemo
 This function uses a non-reentrant model


 *************** function ___lwtoft *****************
 Defined at:
		line 28 in file "C:\Program Files (x86)\Microchip\xc8\v1.35\sources\common\lwtoft.c"
 Parameters:    Size  Location     Type
  c               2    8[BANK0 ] unsigned int 
 Auto vars:     Size  Location     Type
		None
 Return value:  Size  Location     Type
                  3    8[BANK0 ] float 
 Registers used:
		wreg, status,2, status,0, cstack
 Tracked objects:
		On entry : 
		On exit  : 
		Unchanged: 
 Data sizes:     COMRAM   BANK0   BANK1   BANK2   BANK3   BANK4   BANK5   BANK6   BANK7   BANK8   BANK9  BANK10  BANK11  BANK12  BANK13  BANK14
      Params:         0       3       0       0       0       0       0       0       0       0       0       0       0       0       0       0
      Locals:         0       0       0       0       0       0       0       0       0       0       0       0       0       0       0       0
      Temps:          0       0       0       0       0       0       0       0       0       0       0       0       0       0       0       0
      Totals:         0       3       0       0       0       0       0       0       0       0       0       0       0       0       0       0
Total ram usage:        3 bytes
 Hardware stack levels used:    1
 Hardware stack levels required when called:    5
 This function calls:
		___ftpack
 This function is called by:
		_ReadTempSensor
 This function uses a non-reentrant model


 *************** function ___lbtoft *****************
 Defined at:
		line 27 in file "C:\Program Files (x86)\Microchip\xc8\v1.35\sources\common\lbtoft.c"
 Parameters:    Size  Location     Type
  c               1    wreg     unsigned char 
 Auto vars:     Size  Location     Type
  c               1   11[BANK0 ] unsigned char 
 Return value:  Size  Location     Type
                  3    8[BANK0 ] float 
 Registers used:
		wreg, status,2, status,0, cstack
 Tracked objects:
		On entry : 
		On exit  : 
		Unchanged: 
 Data sizes:     COMRAM   BANK0   BANK1   BANK2   BANK3   BANK4   BANK5   BANK6   BANK7   BANK8   BANK9  BANK10  BANK11  BANK12  BANK13  BANK14
      Params:         0       3       0       0       0       0       0       0       0       0       0       0       0       0       0       0
      Locals:         0       1       0       0       0       0       0       0       0       0       0       0       0       0       0       0
      Temps:          0       0       0       0       0       0       0       0       0       0       0       0       0       0       0       0
      Totals:         0       4       0       0       0       0       0       0       0       0       0       0       0       0       0       0
Total ram usage:        4 bytes
 Hardware stack levels used:    1
 Hardware stack levels required when called:    5
 This function calls:
		___ftpack
 This function is called by:
		_TempDemo
		_ReadTempSensor
 This function uses a non-reentrant model


 *************** function ___fttol *****************
 Defined at:
		line 44 in file "C:\Program Files (x86)\Microchip\xc8\v1.35\sources\common\fttol.c"
 Parameters:    Size  Location     Type
  f1              3    0[BANK0 ] float 
 Auto vars:     Size  Location     Type
  lval            4   10[BANK0 ] unsigned long 
  exp1            1   14[BANK0 ] unsigned char 
  sign1           1    9[BANK0 ] unsigned char 
 Return value:  Size  Location     Type
                  4    0[BANK0 ] long 
 Registers used:
		wreg, status,2, status,0
 Tracked objects:
		On entry : 
		On exit  : 
		Unchanged: 
 Data sizes:     COMRAM   BANK0   BANK1   BANK2   BANK3   BANK4   BANK5   BANK6   BANK7   BANK8   BANK9  BANK10  BANK11  BANK12  BANK13  BANK14
      Params:         0       4       0       0       0       0       0       0       0       0       0       0       0       0       0       0
      Locals:         0       6       0       0       0       0       0       0       0       0       0       0       0       0       0       0
      Temps:          0       5       0       0       0       0       0       0       0       0       0       0       0       0       0       0
      Totals:         0      15       0       0       0       0       0       0       0       0       0       0       0       0       0       0
Total ram usage:       15 bytes
 Hardware stack levels used:    1
 Hardware stack levels required when called:    4
 This function calls:
		Nothing
 This function is called by:
		_TempDemo
		_ReadTempSensor
 This function uses a non-reentrant model


 *************** function ___ftneg *****************
 Defined at:
		line 15 in file "C:\Program Files (x86)\Microchip\xc8\v1.35\sources\common\ftneg.c"
 Parameters:    Size  Location     Type
  f1              3   12[BANK0 ] float 
 Auto vars:     Size  Location     Type
		None
 Return value:  Size  Location     Type
                  3   12[BANK0 ] float 
 Registers used:
		wreg, status,2, status,0
 Tracked objects:
		On entry : 
		On exit  : 
		Unchanged: 
 Data sizes:     COMRAM   BANK0   BANK1   BANK2   BANK3   BANK4   BANK5   BANK6   BANK7   BANK8   BANK9  BANK10  BANK11  BANK12  BANK13  BANK14
      Params:         0       3       0       0       0       0       0       0       0       0       0       0       0       0       0       0
      Locals:         0       0       0       0       0       0       0       0       0       0       0       0       0       0       0       0
      Temps:          0       0       0       0       0       0       0       0       0       0       0       0       0       0       0       0
      Totals:         0       3       0       0       0       0       0       0       0       0       0       0       0       0       0       0
Total ram usage:        3 bytes
 Hardware stack levels used:    1
 Hardware stack levels required when called:    4
 This function calls:
		Nothing
 This function is called by:
		_ReadTempSensor
 This function uses a non-reentrant model


 *************** function ___ftmul *****************
 Defined at:
		line 62 in file "C:\Program Files (x86)\Microchip\xc8\v1.35\sources\common\ftmul.c"
 Parameters:    Size  Location     Type
  f1              3   27[BANK0 ] float 
  f2              3   30[BANK0 ] float 
 Auto vars:     Size  Location     Type
  f3_as_produc    3   37[BANK0 ] unsigned um
  sign            1   41[BANK0 ] unsigned char 
  cntr            1   40[BANK0 ] unsigned char 
  exp             1   36[BANK0 ] unsigned char 
 Return value:  Size  Location     Type
                  3   27[BANK0 ] float 
 Registers used:
		wreg, status,2, status,0, cstack
 Tracked objects:
		On entry : 
		On exit  : 
		Unchanged: 
 Data sizes:     COMRAM   BANK0   BANK1   BANK2   BANK3   BANK4   BANK5   BANK6   BANK7   BANK8   BANK9  BANK10  BANK11  BANK12  BANK13  BANK14
      Params:         0       6       0       0       0       0       0       0       0       0       0       0       0       0       0       0
      Locals:         0       6       0       0       0       0       0       0       0       0       0       0       0       0       0       0
      Temps:          0       3       0       0       0       0       0       0       0       0       0       0       0       0       0       0
      Totals:         0      15       0       0       0       0       0       0       0       0       0       0       0       0       0       0
Total ram usage:       15 bytes
 Hardware stack levels used:    1
 Hardware stack levels required when called:    5
 This function calls:
		___ftpack
 This function is called by:
		_ReadTempSensor
 This function uses a non-reentrant model


 *************** function ___ftge *****************
 Defined at:
		line 4 in file "C:\Program Files (x86)\Microchip\xc8\v1.35\sources\common\ftge.c"
 Parameters:    Size  Location     Type
  ff1             3    0[BANK0 ] float 
  ff2             3    3[BANK0 ] float 
 Auto vars:     Size  Location     Type
		None
 Return value:  Size  Location     Type
		None               void
 Registers used:
		wreg, status,2, status,0
 Tracked objects:
		On entry : 
		On exit  : 
		Unchanged: 
 Data sizes:     COMRAM   BANK0   BANK1   BANK2   BANK3   BANK4   BANK5   BANK6   BANK7   BANK8   BANK9  BANK10  BANK11  BANK12  BANK13  BANK14
      Params:         0       6       0       0       0       0       0       0       0       0       0       0       0       0       0       0
      Locals:         0       0       0       0       0       0       0       0       0       0       0       0       0       0       0       0
      Temps:          0       3       0       0       0       0       0       0       0       0       0       0       0       0       0       0
      Totals:         0       9       0       0       0       0       0       0       0       0       0       0       0       0       0       0
Total ram usage:        9 bytes
 Hardware stack levels used:    1
 Hardware stack levels required when called:    4
 This function calls:
		Nothing
 This function is called by:
		_ReadTempSensor
 This function uses a non-reentrant model


 *************** function ___ftdiv *****************
 Defined at:
		line 54 in file "C:\Program Files (x86)\Microchip\xc8\v1.35\sources\common\ftdiv.c"
 Parameters:    Size  Location     Type
  f1              3   27[BANK0 ] float 
  f2              3   30[BANK0 ] float 
 Auto vars:     Size  Location     Type
  f3              3   37[BANK0 ] float 
  sign            1   41[BANK0 ] unsigned char 
  exp             1   40[BANK0 ] unsigned char 
  cntr            1   36[BANK0 ] unsigned char 
 Return value:  Size  Location     Type
                  3   27[BANK0 ] float 
 Registers used:
		wreg, status,2, status,0, cstack
 Tracked objects:
		On entry : 
		On exit  : 
		Unchanged: 
 Data sizes:     COMRAM   BANK0   BANK1   BANK2   BANK3   BANK4   BANK5   BANK6   BANK7   BANK8   BANK9  BANK10  BANK11  BANK12  BANK13  BANK14
      Params:         0       6       0       0       0       0       0       0       0       0       0       0       0       0       0       0
      Locals:         0       6       0       0       0       0       0       0       0       0       0       0       0       0       0       0
      Temps:          0       3       0       0       0       0       0       0       0       0       0       0       0       0       0       0
      Totals:         0      15       0       0       0       0       0       0       0       0       0       0       0       0       0       0
Total ram usage:       15 bytes
 Hardware stack levels used:    1
 Hardware stack levels required when called:    5
 This function calls:
		___ftpack
 This function is called by:
		_ReadTempSensor
 This function uses a non-reentrant model


 *************** function ___ftadd *****************
 Defined at:
		line 86 in file "C:\Program Files (x86)\Microchip\xc8\v1.35\sources\common\ftadd.c"
 Parameters:    Size  Location     Type
  f1              3   15[BANK0 ] float 
  f2              3   18[BANK0 ] float 
 Auto vars:     Size  Location     Type
  exp1            1   26[BANK0 ] unsigned char 
  exp2            1   25[BANK0 ] unsigned char 
  sign            1   24[BANK0 ] unsigned char 
 Return value:  Size  Location     Type
                  3   15[BANK0 ] float 
 Registers used:
		wreg, status,2, status,0, cstack
 Tracked objects:
		On entry : 
		On exit  : 
		Unchanged: 
 Data sizes:     COMRAM   BANK0   BANK1   BANK2   BANK3   BANK4   BANK5   BANK6   BANK7   BANK8   BANK9  BANK10  BANK11  BANK12  BANK13  BANK14
      Params:         0       6       0       0       0       0       0       0       0       0       0       0       0       0       0       0
      Locals:         0       3       0       0       0       0       0       0       0       0       0       0       0       0       0       0
      Temps:          0       3       0       0       0       0       0       0       0       0       0       0       0       0       0       0
      Totals:         0      12       0       0       0       0       0       0       0       0       0       0       0       0       0       0
Total ram usage:       12 bytes
 Hardware stack levels used:    1
 Hardware stack levels required when called:    5
 This function calls:
		___ftpack
 This function is called by:
		_ReadTempSensor
 This function uses a non-reentrant model


 *************** function ___ftpack *****************
 Defined at:
		line 62 in file "C:\Program Files (x86)\Microchip\xc8\v1.35\sources\common\float.c"
 Parameters:    Size  Location     Type
  arg             3    0[BANK0 ] unsigned um
  exp             1    3[BANK0 ] unsigned char 
  sign            1    4[BANK0 ] unsigned char 
 Auto vars:     Size  Location     Type
		None
 Return value:  Size  Location     Type
                  3    0[BANK0 ] float 
 Registers used:
		wreg, status,2, status,0
 Tracked objects:
		On entry : 
		On exit  : 
		Unchanged: 
 Data sizes:     COMRAM   BANK0   BANK1   BANK2   BANK3   BANK4   BANK5   BANK6   BANK7   BANK8   BANK9  BANK10  BANK11  BANK12  BANK13  BANK14
      Params:         0       5       0       0       0       0       0       0       0       0       0       0       0       0       0       0
      Locals:         0       0       0       0       0       0       0       0       0       0       0       0       0       0       0       0
      Temps:          0       3       0       0       0       0       0       0       0       0       0       0       0       0       0       0
      Totals:         0       8       0       0       0       0       0       0       0       0       0       0       0       0       0       0
Total ram usage:        8 bytes
 Hardware stack levels used:    1
 Hardware stack levels required when called:    4
 This function calls:
		Nothing
 This function is called by:
		___ftadd
		___ftdiv
		___ftmul
		___lbtoft
		___lwtoft
 This function uses a non-reentrant model


 *************** function _DELAY_10us *****************
 Defined at:
		line 47 in file "../src/system_config/miwikit_pic18f46j50_24j40/delay.c"
 Parameters:    Size  Location     Type
  tenMicroSeco    4   12[BANK0 ] unsigned long 
 Auto vars:     Size  Location     Type
  cyclesRequir    4   16[BANK0 ] volatile long 
 Return value:  Size  Location     Type
		None               void
 Registers used:
		wreg, status,2, status,0, cstack
 Tracked objects:
		On entry : 
		On exit  : 
		Unchanged: 
 Data sizes:     COMRAM   BANK0   BANK1   BANK2   BANK3   BANK4   BANK5   BANK6   BANK7   BANK8   BANK9  BANK10  BANK11  BANK12  BANK13  BANK14
      Params:         0       4       0       0       0       0       0       0       0       0       0       0       0       0       0       0
      Locals:         0       4       0       0       0       0       0       0       0       0       0       0       0       0       0       0
      Temps:          0       0       0       0       0       0       0       0       0       0       0       0       0       0       0       0
      Totals:         0       8       0       0       0       0       0       0       0       0       0       0       0       0       0       0
Total ram usage:        8 bytes
 Hardware stack levels used:    1
 Hardware stack levels required when called:    5
 This function calls:
		___lmul
 This function is called by:
		_ReadTempSensor
		_Read_VBGVoltage
 This function uses a non-reentrant model


 *************** function _PrintTempLCD *****************
 Defined at:
		line 421 in file "../src/temp_demo.c"
 Parameters:    Size  Location     Type
		None
 Auto vars:     Size  Location     Type
  temp            2   50[BANK0 ] int 
  tempF           1   49[BANK0 ] unsigned char 
 Return value:  Size  Location     Type
		None               void
 Registers used:
		wreg, fsr1l, fsr1h, fsr2l, fsr2h, status,2, status,0, tblptrl, tblptrh, tblptru, prodl, prodh, cstack
 Tracked objects:
		On entry : 
		On exit  : 
		Unchanged: 
 Data sizes:     COMRAM   BANK0   BANK1   BANK2   BANK3   BANK4   BANK5   BANK6   BANK7   BANK8   BANK9  BANK10  BANK11  BANK12  BANK13  BANK14
      Params:         0       0       0       0       0       0       0       0       0       0       0       0       0       0       0       0
      Locals:         0       3       0       0       0       0       0       0       0       0       0       0       0       0       0       0
      Temps:          0       2       0       0       0       0       0       0       0       0       0       0       0       0       0       0
      Totals:         0       5       0       0       0       0       0       0       0       0       0       0       0       0       0       0
Total ram usage:        5 bytes
 Hardware stack levels used:    1
 Hardware stack levels required when called:    7
 This function calls:
		_LCD_Erase
		_LCD_Update
		___awdiv
		___wmul
		_sprintf
 This function is called by:
		_TempDemo
 This function uses a non-reentrant model


 *************** function _MiApp_BroadcastPacket *****************
 Defined at:
		line 4243 in file "../../../../../../framework/miwi/src/miwi_mesh.c"
 Parameters:    Size  Location     Type
  SecEn           1    wreg     unsigned char 
 Auto vars:     Size  Location     Type
  SecEn           1   61[BANK0 ] unsigned char 
  i               1   62[BANK0 ] unsigned char 
 Return value:  Size  Location     Type
                  1    wreg      unsigned char 
 Registers used:
		wreg, fsr0l, fsr0h, fsr1l, fsr1h, fsr2l, fsr2h, status,2, status,0, prodl, prodh, cstack
 Tracked objects:
		On entry : 
		On exit  : 
		Unchanged: 
 Data sizes:     COMRAM   BANK0   BANK1   BANK2   BANK3   BANK4   BANK5   BANK6   BANK7   BANK8   BANK9  BANK10  BANK11  BANK12  BANK13  BANK14
      Params:         0       0       0       0       0       0       0       0       0       0       0       0       0       0       0       0
      Locals:         0       2       0       0       0       0       0       0       0       0       0       0       0       0       0       0
      Temps:          0       0       0       0       0       0       0       0       0       0       0       0       0       0       0       0
      Totals:         0       2       0       0       0       0       0       0       0       0       0       0       0       0       0       0
Total ram usage:        2 bytes
 Hardware stack levels used:    1
 Hardware stack levels required when called:    9
 This function calls:
		_MiMAC_SendPacket
		_SaveIndirectMessage
 This function is called by:
		_main
		_TempDemo
 This function uses a non-reentrant model


 *************** function _SelfTest *****************
 Defined at:
		line 37 in file "../src/self_test.c"
 Parameters:    Size  Location     Type
  myChannel       1    wreg     unsigned char 
 Auto vars:     Size  Location     Type
  myChannel       1    8[BANK1 ] unsigned char 
  Tx_Success      1    7[BANK1 ] unsigned char 
  scanresult      1    6[BANK1 ] unsigned char 
  Tx_Trials       1    5[BANK1 ] unsigned char 
 Return value:  Size  Location     Type
		None               void
 Registers used:
		wreg, fsr0l, fsr0h, fsr1l, fsr1h, fsr2l, fsr2h, status,2, status,0, tblptrl, tblptrh, tblptru, prodl, prodh, cstack
 Tracked objects:
		On entry : 
		On exit  : 
		Unchanged: 
 Data sizes:     COMRAM   BANK0   BANK1   BANK2   BANK3   BANK4   BANK5   BANK6   BANK7   BANK8   BANK9  BANK10  BANK11  BANK12  BANK13  BANK14
      Params:         0       0       0       0       0       0       0       0       0       0       0       0       0       0       0       0
      Locals:         0       0       4       0       0       0       0       0       0       0       0       0       0       0       0       0
      Temps:          0       0       5       0       0       0       0       0       0       0       0       0       0       0       0       0
      Totals:         0       0       9       0       0       0       0       0       0       0       0       0       0       0       0       0
Total ram usage:        9 bytes
 Hardware stack levels used:    1
 Hardware stack levels required when called:   16
 This function calls:
		_BUTTON_Pressed
		_EEPROMRead
		_LCD_Display
		_MiApp_SearchConnection
		_MiApp_SetChannel
		_SSTGetID
 This function is called by:
		_main
 This function uses a non-reentrant model


 *************** function _SSTGetID *****************
 Defined at:
		line 128 in file "../src/system_config/miwikit_pic18f46j50_24j40/serial_flash.c"
 Parameters:    Size  Location     Type
  dest            2    2[BANK0 ] PTR unsigned char 
		 -> SST_Val(1), 
 Auto vars:     Size  Location     Type
		None
 Return value:  Size  Location     Type
		None               void
 Registers used:
		wreg, fsr2l, fsr2h, status,2, cstack
 Tracked objects:
		On entry : 
		On exit  : 
		Unchanged: 
 Data sizes:     COMRAM   BANK0   BANK1   BANK2   BANK3   BANK4   BANK5   BANK6   BANK7   BANK8   BANK9  BANK10  BANK11  BANK12  BANK13  BANK14
      Params:         0       2       0       0       0       0       0       0       0       0       0       0       0       0       0       0
      Locals:         0       0       0       0       0       0       0       0       0       0       0       0       0       0       0       0
      Temps:          0       0       0       0       0       0       0       0       0       0       0       0       0       0       0       0
      Totals:         0       2       0       0       0       0       0       0       0       0       0       0       0       0       0       0
Total ram usage:        2 bytes
 Hardware stack levels used:    1
 Hardware stack levels required when called:    6
 This function calls:
		_SPIGet2
		_SPIPut2
 This function is called by:
		_SelfTest
 This function uses a non-reentrant model


 *************** function _SYSTEM_Initialize *****************
 Defined at:
		line 47 in file "../src/system_config/miwikit_pic18f46j50_24j40/system.c"
 Parameters:    Size  Location     Type
		None
 Auto vars:     Size  Location     Type
		None
 Return value:  Size  Location     Type
		None               void
 Registers used:
		wreg, status,2, status,0, cstack
 Tracked objects:
		On entry : 
		On exit  : 
		Unchanged: 
 Data sizes:     COMRAM   BANK0   BANK1   BANK2   BANK3   BANK4   BANK5   BANK6   BANK7   BANK8   BANK9  BANK10  BANK11  BANK12  BANK13  BANK14
      Params:         0       0       0       0       0       0       0       0       0       0       0       0       0       0       0       0
      Locals:         0       0       0       0       0       0       0       0       0       0       0       0       0       0       0       0
      Temps:          0       0       0       0       0       0       0       0       0       0       0       0       0       0       0       0
      Totals:         0       0       0       0       0       0       0       0       0       0       0       0       0       0       0       0
Total ram usage:        0 bytes
 Hardware stack levels used:    1
 Hardware stack levels required when called:    7
 This function calls:
		_LCD_Initialize
 This function is called by:
		_main
 This function uses a non-reentrant model


 *************** function _LCD_Initialize *****************
 Defined at:
		line 53 in file "../src/system_config/miwikit_pic18f46j50_24j40/lcd.c"
 Parameters:    Size  Location     Type
		None
 Auto vars:     Size  Location     Type
		None
 Return value:  Size  Location     Type
		None               void
 Registers used:
		wreg, status,2, status,0, cstack
 Tracked objects:
		On entry : 
		On exit  : 
		Unchanged: 
 Data sizes:     COMRAM   BANK0   BANK1   BANK2   BANK3   BANK4   BANK5   BANK6   BANK7   BANK8   BANK9  BANK10  BANK11  BANK12  BANK13  BANK14
      Params:         0       0       0       0       0       0       0       0       0       0       0       0       0       0       0       0
      Locals:         0       0       0       0       0       0       0       0       0       0       0       0       0       0       0       0
      Temps:          0       0       0       0       0       0       0       0       0       0       0       0       0       0       0       0
      Totals:         0       0       0       0       0       0       0       0       0       0       0       0       0       0       0       0
Total ram usage:        0 bytes
 Hardware stack levels used:    1
 Hardware stack levels required when called:    6
 This function calls:
		_DELAY_ms
		_LCD_WriteCmd
 This function is called by:
		_SYSTEM_Initialize
 This function uses a non-reentrant model


 *************** function _Read_MAC_Address *****************
 Defined at:
		line 88 in file "../src/system_config/miwikit_pic18f46j50_24j40/eeprom.c"
 Parameters:    Size  Location     Type
		None
 Auto vars:     Size  Location     Type
  i               1    8[BANK0 ] unsigned char 
 Return value:  Size  Location     Type
		None               void
 Registers used:
		wreg, fsr2l, fsr2h, status,2, status,0, prodl, prodh, cstack
 Tracked objects:
		On entry : 
		On exit  : 
		Unchanged: 
 Data sizes:     COMRAM   BANK0   BANK1   BANK2   BANK3   BANK4   BANK5   BANK6   BANK7   BANK8   BANK9  BANK10  BANK11  BANK12  BANK13  BANK14
      Params:         0       0       0       0       0       0       0       0       0       0       0       0       0       0       0       0
      Locals:         0       1       0       0       0       0       0       0       0       0       0       0       0       0       0       0
      Temps:          0       2       0       0       0       0       0       0       0       0       0       0       0       0       0       0
      Totals:         0       3       0       0       0       0       0       0       0       0       0       0       0       0       0       0
Total ram usage:        3 bytes
 Hardware stack levels used:    1
 Hardware stack levels required when called:    7
 This function calls:
		_EEPROMRead
 This function is called by:
		_main
 This function uses a non-reentrant model


 *************** function _EEPROMRead *****************
 Defined at:
		line 57 in file "../src/system_config/miwikit_pic18f46j50_24j40/eeprom.c"
 Parameters:    Size  Location     Type
  dest            2    2[BANK0 ] PTR unsigned char 
		 -> EEPROM_Val(3), myLongAddress(8), 
  addr            1    4[BANK0 ] unsigned char 
  count           1    5[BANK0 ] unsigned char 
 Auto vars:     Size  Location     Type
		None
 Return value:  Size  Location     Type
		None               void
 Registers used:
		wreg, fsr2l, fsr2h, status,2, status,0, cstack
 Tracked objects:
		On entry : 
		On exit  : 
		Unchanged: 
 Data sizes:     COMRAM   BANK0   BANK1   BANK2   BANK3   BANK4   BANK5   BANK6   BANK7   BANK8   BANK9  BANK10  BANK11  BANK12  BANK13  BANK14
      Params:         0       4       0       0       0       0       0       0       0       0       0       0       0       0       0       0
      Locals:         0       0       0       0       0       0       0       0       0       0       0       0       0       0       0       0
      Temps:          0       0       0       0       0       0       0       0       0       0       0       0       0       0       0       0
      Totals:         0       4       0       0       0       0       0       0       0       0       0       0       0       0       0       0
Total ram usage:        4 bytes
 Hardware stack levels used:    1
 Hardware stack levels required when called:    6
 This function calls:
		_SPIGet2
		_SPIPut2
 This function is called by:
		_Read_MAC_Address
		_SelfTest
 This function uses a non-reentrant model


 *************** function _SPIGet2 *****************
 Defined at:
		line 206 in file "../src/system_config/miwikit_pic18f46j50_24j40/spi.c"
 Parameters:    Size  Location     Type
		None
 Auto vars:     Size  Location     Type
		None
 Return value:  Size  Location     Type
                  1    wreg      unsigned char 
 Registers used:
		wreg, status,2, cstack
 Tracked objects:
		On entry : 
		On exit  : 
		Unchanged: 
 Data sizes:     COMRAM   BANK0   BANK1   BANK2   BANK3   BANK4   BANK5   BANK6   BANK7   BANK8   BANK9  BANK10  BANK11  BANK12  BANK13  BANK14
      Params:         0       0       0       0       0       0       0       0       0       0       0       0       0       0       0       0
      Locals:         0       0       0       0       0       0       0       0       0       0       0       0       0       0       0       0
      Temps:          0       0       0       0       0       0       0       0       0       0       0       0       0       0       0       0
      Totals:         0       0       0       0       0       0       0       0       0       0       0       0       0       0       0       0
Total ram usage:        0 bytes
 Hardware stack levels used:    1
 Hardware stack levels required when called:    5
 This function calls:
		_SPIPut2
 This function is called by:
		_SSTGetID
		_EEPROMRead
		_SSTRead
 This function uses a non-reentrant model


 *************** function _RangeDemo *****************
 Defined at:
		line 88 in file "../src/range_demo.c"
 Parameters:    Size  Location     Type
		None
 Auto vars:     Size  Location     Type
  tick1           4    8[BANK1 ] struct _MIWI_TICK
  tick2           4    3[BANK1 ] struct _MIWI_TICK
  rssi            1   13[BANK1 ] unsigned char 
  Run_Demo        1   12[BANK1 ] unsigned char 
  switch_val      1    7[BANK1 ] unsigned char 
  Pkt_Loss_Cnt    1    2[BANK1 ] unsigned char 
  Tx_Packet       1    1[BANK1 ] unsigned char 
  pktCmd          1    0[BANK1 ] unsigned char 
 Return value:  Size  Location     Type
		None               void
 Registers used:
		wreg, fsr0l, fsr0h, fsr1l, fsr1h, fsr2l, fsr2h, status,2, status,0, tblptrl, tblptrh, tblptru, prodl, prodh, cstack
 Tracked objects:
		On entry : 
		On exit  : 
		Unchanged: 
 Data sizes:     COMRAM   BANK0   BANK1   BANK2   BANK3   BANK4   BANK5   BANK6   BANK7   BANK8   BANK9  BANK10  BANK11  BANK12  BANK13  BANK14
      Params:         0       0       0       0       0       0       0       0       0       0       0       0       0       0       0       0
      Locals:         0       0      14       0       0       0       0       0       0       0       0       0       0       0       0       0
      Temps:          0       8       0       0       0       0       0       0       0       0       0       0       0       0       0       0
      Totals:         0       8      14       0       0       0       0       0       0       0       0       0       0       0       0       0
Total ram usage:       22 bytes
 Hardware stack levels used:    1
 Hardware stack levels required when called:   16
 This function calls:
		_BUTTON_Pressed
		_LCD_BacklightOFF
		_LCD_BacklightON
		_LCD_Display
		_LCD_Erase
		_LCD_Update
		_MiApp_DiscardMessage
		_MiApp_MessageAvailable
		_MiApp_UnicastConnection
		_MiWi_TickGet
		_sprintf
 This function is called by:
		_main
 This function uses a non-reentrant model


 *************** function _MiApp_UnicastConnection *****************
 Defined at:
		line 4342 in file "../../../../../../framework/miwi/src/miwi_mesh.c"
 Parameters:    Size  Location     Type
  ConnectionIn    1    wreg     unsigned char 
  SecEn           1  122[BANK0 ] unsigned char 
 Auto vars:     Size  Location     Type
  ConnectionIn    1  140[BANK0 ] unsigned char 
  t2              4  135[BANK0 ] struct _MIWI_TICK
  t1              4  131[BANK0 ] struct _MIWI_TICK
  MiWiFrameCon    1  139[BANK0 ] unsigned char 
 Return value:  Size  Location     Type
                  1    wreg      unsigned char 
 Registers used:
		wreg, fsr0l, fsr0h, fsr1l, fsr1h, fsr2l, fsr2h, status,2, status,0, prodl, prodh, cstack
 Tracked objects:
		On entry : 
		On exit  : 
		Unchanged: 
 Data sizes:     COMRAM   BANK0   BANK1   BANK2   BANK3   BANK4   BANK5   BANK6   BANK7   BANK8   BANK9  BANK10  BANK11  BANK12  BANK13  BANK14
      Params:         0       1       0       0       0       0       0       0       0       0       0       0       0       0       0       0
      Locals:         0      10       0       0       0       0       0       0       0       0       0       0       0       0       0       0
      Temps:          0       8       0       0       0       0       0       0       0       0       0       0       0       0       0       0
      Totals:         0      19       0       0       0       0       0       0       0       0       0       0       0       0       0       0
Total ram usage:       19 bytes
 Hardware stack levels used:    1
 Hardware stack levels required when called:   15
 This function calls:
		_MiApp_DiscardMessage
		_MiApp_MessageAvailable
		_MiWi_TickGet
		_RouteMessage
 This function is called by:
		_main
		_RangeDemo
		_TempDemo
		_MiApp_ResyncConnection
 This function uses a non-reentrant model


 *************** function _LCD_Display *****************
 Defined at:
		line 168 in file "../src/system_config/miwikit_pic18f46j50_24j40/lcd.c"
 Parameters:    Size  Location     Type
  text            2   47[BANK0 ] PTR unsigned char 
		 -> STR_47(31), STR_46(31), STR_45(31), STR_44(26), 
		 -> STR_43(26), STR_42(12), STR_41(31), STR_40(33), 
		 -> STR_39(32), STR_38(32), STR_37(33), STR_32(28), 
		 -> STR_31(32), STR_28(34), STR_27(34), STR_26(34), 
		 -> STR_23(32), STR_22(34), STR_21(29), STR_20(31), 
		 -> STR_19(15), STR_14(33), STR_13(31), STR_10(29), 
		 -> STR_9(17), STR_8(33), STR_7(30), 
  value           1   49[BANK0 ] unsigned char 
  delay           1   50[BANK0 ] unsigned char 
 Auto vars:     Size  Location     Type
  i               1   51[BANK0 ] unsigned char 
 Return value:  Size  Location     Type
		None               void
 Registers used:
		wreg, fsr1l, fsr1h, fsr2l, fsr2h, status,2, status,0, tblptrl, tblptrh, tblptru, prodl, prodh, cstack
 Tracked objects:
		On entry : 
		On exit  : 
		Unchanged: 
 Data sizes:     COMRAM   BANK0   BANK1   BANK2   BANK3   BANK4   BANK5   BANK6   BANK7   BANK8   BANK9  BANK10  BANK11  BANK12  BANK13  BANK14
      Params:         0       4       0       0       0       0       0       0       0       0       0       0       0       0       0       0
      Locals:         0       1       0       0       0       0       0       0       0       0       0       0       0       0       0       0
      Temps:          0       0       0       0       0       0       0       0       0       0       0       0       0       0       0       0
      Totals:         0       5       0       0       0       0       0       0       0       0       0       0       0       0       0       0
Total ram usage:        5 bytes
 Hardware stack levels used:    1
 Hardware stack levels required when called:    7
 This function calls:
		_DELAY_ms
		_LCD_Erase
		_LCD_Update
		_sprintf
 This function is called by:
		_main
		_RangeDemo
		_SelfTest
		_TempDemo
 This function uses a non-reentrant model


 *************** function _sprintf *****************
 Defined at:
		line 492 in file "C:\Program Files (x86)\Microchip\xc8\v1.35\sources\common\doprnt.c"
 Parameters:    Size  Location     Type
  sp              2   12[BANK0 ] PTR unsigned char 
		 -> LCDText(33), 
  f               2   14[BANK0 ] PTR const unsigned char 
		 -> STR_55(2), STR_54(5), STR_53(2), STR_52(4), 
		 -> STR_51(4), STR_50(10), STR_49(16), STR_48(17), 
		 -> STR_47(31), STR_46(31), STR_45(31), STR_44(26), 
		 -> STR_43(26), STR_42(12), STR_41(31), STR_40(33), 
		 -> STR_39(32), STR_38(32), STR_37(33), STR_36(15), 
		 -> STR_35(14), STR_34(17), STR_33(16), STR_32(28), 
		 -> STR_31(32), STR_30(18), STR_29(23), STR_28(34), 
		 -> STR_27(34), STR_26(34), STR_25(16), STR_24(20), 
		 -> STR_23(32), STR_22(34), STR_21(29), STR_20(31), 
		 -> STR_19(15), STR_18(16), STR_17(20), STR_16(16), 
		 -> STR_15(21), STR_14(33), STR_13(31), STR_12(18), 
		 -> STR_11(23), STR_10(29), STR_9(17), STR_8(33), 
		 -> STR_7(30), STR_6(16), STR_5(18), STR_4(16), 
		 -> STR_3(18), STR_2(17), STR_1(17), 
 Auto vars:     Size  Location     Type
  idx             1   26[BANK0 ] unsigned char 
  tmpval          4    0        struct .
  flag            2   45[BANK0 ] unsigned short 
  width           2   42[BANK0 ] int 
  val             2   39[BANK0 ] unsigned int 
  ap              2   37[BANK0 ] PTR void [1]
		 -> ?_sprintf(2), 
  len             2   35[BANK0 ] unsigned int 
  cp              2   27[BANK0 ] PTR const unsigned char 
		 -> sprintf@c(1), 
  c               1   44[BANK0 ] char 
  prec            1   41[BANK0 ] char 
 Return value:  Size  Location     Type
                  2   12[BANK0 ] int 
 Registers used:
		wreg, fsr1l, fsr1h, fsr2l, fsr2h, status,2, status,0, tblptrl, tblptrh, tblptru, prodl, prodh, cstack
 Tracked objects:
		On entry : 
		On exit  : 
		Unchanged: 
 Data sizes:     COMRAM   BANK0   BANK1   BANK2   BANK3   BANK4   BANK5   BANK6   BANK7   BANK8   BANK9  BANK10  BANK11  BANK12  BANK13  BANK14
      Params:         0      10       0       0       0       0       0       0       0       0       0       0       0       0       0       0
      Locals:         0      21       0       0       0       0       0       0       0       0       0       0       0       0       0       0
      Temps:          0       4       0       0       0       0       0       0       0       0       0       0       0       0       0       0
      Totals:         0      35       0       0       0       0       0       0       0       0       0       0       0       0       0       0
Total ram usage:       35 bytes
 Hardware stack levels used:    1
 Hardware stack levels required when called:    5
 This function calls:
		___lwdiv
		___lwmod
		___wmul
		_isdigit
 This function is called by:
		_LCD_Display
		_main
		_RangeDemo
		_PrintTempLCD
 This function uses a non-reentrant model


 *************** function _isdigit *****************
 Defined at:
		line 8 in file "C:\Program Files (x86)\Microchip\xc8\v1.35\sources\common\isdigit.c"
 Parameters:    Size  Location     Type
  c               1    wreg     unsigned char 
 Auto vars:     Size  Location     Type
  c               1    2[BANK0 ] unsigned char 
 Return value:  Size  Location     Type
		None               void
 Registers used:
		wreg, status,2, status,0
 Tracked objects:
		On entry : 
		On exit  : 
		Unchanged: 
 Data sizes:     COMRAM   BANK0   BANK1   BANK2   BANK3   BANK4   BANK5   BANK6   BANK7   BANK8   BANK9  BANK10  BANK11  BANK12  BANK13  BANK14
      Params:         0       0       0       0       0       0       0       0       0       0       0       0       0       0       0       0
      Locals:         0       2       0       0       0       0       0       0       0       0       0       0       0       0       0       0
      Temps:          0       1       0       0       0       0       0       0       0       0       0       0       0       0       0       0
      Totals:         0       3       0       0       0       0       0       0       0       0       0       0       0       0       0       0
Total ram usage:        3 bytes
 Hardware stack levels used:    1
 Hardware stack levels required when called:    4
 This function calls:
		Nothing
 This function is called by:
		_sprintf
 This function uses a non-reentrant model


 *************** function ___wmul *****************
 Defined at:
		line 15 in file "C:\Program Files (x86)\Microchip\xc8\v1.35\sources\common\Umul16.c"
 Parameters:    Size  Location     Type
  multiplier      2    0[BANK0 ] unsigned int 
  multiplicand    2    2[BANK0 ] unsigned int 
 Auto vars:     Size  Location     Type
  product         2    4[BANK0 ] unsigned int 
 Return value:  Size  Location     Type
                  2    0[BANK0 ] unsigned int 
 Registers used:
		wreg, status,2, status,0, prodl, prodh
 Tracked objects:
		On entry : 
		On exit  : 
		Unchanged: 
 Data sizes:     COMRAM   BANK0   BANK1   BANK2   BANK3   BANK4   BANK5   BANK6   BANK7   BANK8   BANK9  BANK10  BANK11  BANK12  BANK13  BANK14
      Params:         0       4       0       0       0       0       0       0       0       0       0       0       0       0       0       0
      Locals:         0       2       0       0       0       0       0       0       0       0       0       0       0       0       0       0
      Temps:          0       0       0       0       0       0       0       0       0       0       0       0       0       0       0       0
      Totals:         0       6       0       0       0       0       0       0       0       0       0       0       0       0       0       0
Total ram usage:        6 bytes
 Hardware stack levels used:    1
 Hardware stack levels required when called:    4
 This function calls:
		Nothing
 This function is called by:
		_TempDemo
		_PrintTempLCD
		_sprintf
 This function uses a non-reentrant model


 *************** function ___lwmod *****************
 Defined at:
		line 8 in file "C:\Program Files (x86)\Microchip\xc8\v1.35\sources\common\lwmod.c"
 Parameters:    Size  Location     Type
  dividend        2    7[BANK0 ] unsigned int 
  divisor         2    9[BANK0 ] unsigned int 
 Auto vars:     Size  Location     Type
  counter         1   11[BANK0 ] unsigned char 
 Return value:  Size  Location     Type
                  2    7[BANK0 ] unsigned int 
 Registers used:
		wreg, status,2, status,0
 Tracked objects:
		On entry : 
		On exit  : 
		Unchanged: 
 Data sizes:     COMRAM   BANK0   BANK1   BANK2   BANK3   BANK4   BANK5   BANK6   BANK7   BANK8   BANK9  BANK10  BANK11  BANK12  BANK13  BANK14
      Params:         0       4       0       0       0       0       0       0       0       0       0       0       0       0       0       0
      Locals:         0       1       0       0       0       0       0       0       0       0       0       0       0       0       0       0
      Temps:          0       0       0       0       0       0       0       0       0       0       0       0       0       0       0       0
      Totals:         0       5       0       0       0       0       0       0       0       0       0       0       0       0       0       0
Total ram usage:        5 bytes
 Hardware stack levels used:    1
 Hardware stack levels required when called:    4
 This function calls:
		Nothing
 This function is called by:
		_sprintf
 This function uses a non-reentrant model


 *************** function ___lwdiv *****************
 Defined at:
		line 8 in file "C:\Program Files (x86)\Microchip\xc8\v1.35\sources\common\lwdiv.c"
 Parameters:    Size  Location     Type
  dividend        2    0[BANK0 ] unsigned int 
  divisor         2    2[BANK0 ] unsigned int 
 Auto vars:     Size  Location     Type
  quotient        2    5[BANK0 ] unsigned int 
  counter         1    4[BANK0 ] unsigned char 
 Return value:  Size  Location     Type
                  2    0[BANK0 ] unsigned int 
 Registers used:
		wreg, status,2, status,0
 Tracked objects:
		On entry : 
		On exit  : 
		Unchanged: 
 Data sizes:     COMRAM   BANK0   BANK1   BANK2   BANK3   BANK4   BANK5   BANK6   BANK7   BANK8   BANK9  BANK10  BANK11  BANK12  BANK13  BANK14
      Params:         0       4       0       0       0       0       0       0       0       0       0       0       0       0       0       0
      Locals:         0       3       0       0       0       0       0       0       0       0       0       0       0       0       0       0
      Temps:          0       0       0       0       0       0       0       0       0       0       0       0       0       0       0       0
      Totals:         0       7       0       0       0       0       0       0       0       0       0       0       0       0       0       0
Total ram usage:        7 bytes
 Hardware stack levels used:    1
 Hardware stack levels required when called:    4
 This function calls:
		Nothing
 This function is called by:
		_sprintf
 This function uses a non-reentrant model


 *************** function _LCD_Update *****************
 Defined at:
		line 113 in file "../src/system_config/miwikit_pic18f46j50_24j40/lcd.c"
 Parameters:    Size  Location     Type
		None
 Auto vars:     Size  Location     Type
  i               1    3[BANK0 ] unsigned char 
 Return value:  Size  Location     Type
		None               void
 Registers used:
		wreg, fsr2l, fsr2h, status,2, status,0, prodl, prodh, cstack
 Tracked objects:
		On entry : 
		On exit  : 
		Unchanged: 
 Data sizes:     COMRAM   BANK0   BANK1   BANK2   BANK3   BANK4   BANK5   BANK6   BANK7   BANK8   BANK9  BANK10  BANK11  BANK12  BANK13  BANK14
      Params:         0       0       0       0       0       0       0       0       0       0       0       0       0       0       0       0
      Locals:         0       1       0       0       0       0       0       0       0       0       0       0       0       0       0       0
      Temps:          0       0       0       0       0       0       0       0       0       0       0       0       0       0       0       0
      Totals:         0       1       0       0       0       0       0       0       0       0       0       0       0       0       0       0
Total ram usage:        1 bytes
 Hardware stack levels used:    1
 Hardware stack levels required when called:    6
 This function calls:
		_LCD_WriteCmd
		_LCD_WriteData
 This function is called by:
		_LCD_Display
		_main
		_RangeDemo
		_PrintTempLCD
 This function uses a non-reentrant model


 *************** function _LCD_WriteData *****************
 Defined at:
		line 42 in file "../src/system_config/miwikit_pic18f46j50_24j40/lcd.c"
 Parameters:    Size  Location     Type
  data            1    wreg     unsigned char 
 Auto vars:     Size  Location     Type
  data            1    2[BANK0 ] unsigned char 
 Return value:  Size  Location     Type
		None               void
 Registers used:
		wreg, status,2, cstack
 Tracked objects:
		On entry : 
		On exit  : 
		Unchanged: 
 Data sizes:     COMRAM   BANK0   BANK1   BANK2   BANK3   BANK4   BANK5   BANK6   BANK7   BANK8   BANK9  BANK10  BANK11  BANK12  BANK13  BANK14
      Params:         0       0       0       0       0       0       0       0       0       0       0       0       0       0       0       0
      Locals:         0       1       0       0       0       0       0       0       0       0       0       0       0       0       0       0
      Temps:          0       0       0       0       0       0       0       0       0       0       0       0       0       0       0       0
      Totals:         0       1       0       0       0       0       0       0       0       0       0       0       0       0       0       0
Total ram usage:        1 bytes
 Hardware stack levels used:    1
 Hardware stack levels required when called:    5
 This function calls:
		_SPIPut2
 This function is called by:
		_LCD_Update
 This function uses a non-reentrant model


 *************** function _LCD_Erase *****************
 Defined at:
		line 92 in file "../src/system_config/miwikit_pic18f46j50_24j40/lcd.c"
 Parameters:    Size  Location     Type
		None
 Auto vars:     Size  Location     Type
		None
 Return value:  Size  Location     Type
		None               void
 Registers used:
		wreg, fsr2l, fsr2h, status,2, status,0, cstack
 Tracked objects:
		On entry : 
		On exit  : 
		Unchanged: 
 Data sizes:     COMRAM   BANK0   BANK1   BANK2   BANK3   BANK4   BANK5   BANK6   BANK7   BANK8   BANK9  BANK10  BANK11  BANK12  BANK13  BANK14
      Params:         0       0       0       0       0       0       0       0       0       0       0       0       0       0       0       0
      Locals:         0       0       0       0       0       0       0       0       0       0       0       0       0       0       0       0
      Temps:          0       0       0       0       0       0       0       0       0       0       0       0       0       0       0       0
      Totals:         0       0       0       0       0       0       0       0       0       0       0       0       0       0       0       0
Total ram usage:        0 bytes
 Hardware stack levels used:    1
 Hardware stack levels required when called:    6
 This function calls:
		_DELAY_ms
		_LCD_WriteCmd
		_memset
 This function is called by:
		_LCD_Display
		_main
		_RangeDemo
		_PrintTempLCD
 This function uses a non-reentrant model


 *************** function _memset *****************
 Defined at:
		line 8 in file "C:\Program Files (x86)\Microchip\xc8\v1.35\sources\common\memset.c"
 Parameters:    Size  Location     Type
  p1              2    0[BANK0 ] PTR void 
		 -> LCDText(33), 
  c               2    2[BANK0 ] int 
  n               2    4[BANK0 ] unsigned int 
 Auto vars:     Size  Location     Type
  p               2    6[BANK0 ] PTR unsigned char 
		 -> LCDText(33), 
 Return value:  Size  Location     Type
                  2    0[BANK0 ] PTR void 
 Registers used:
		wreg, fsr2l, fsr2h, status,2, status,0
 Tracked objects:
		On entry : 
		On exit  : 
		Unchanged: 
 Data sizes:     COMRAM   BANK0   BANK1   BANK2   BANK3   BANK4   BANK5   BANK6   BANK7   BANK8   BANK9  BANK10  BANK11  BANK12  BANK13  BANK14
      Params:         0       6       0       0       0       0       0       0       0       0       0       0       0       0       0       0
      Locals:         0       2       0       0       0       0       0       0       0       0       0       0       0       0       0       0
      Temps:          0       0       0       0       0       0       0       0       0       0       0       0       0       0       0       0
      Totals:         0       8       0       0       0       0       0       0       0       0       0       0       0       0       0       0
Total ram usage:        8 bytes
 Hardware stack levels used:    1
 Hardware stack levels required when called:    4
 This function calls:
		Nothing
 This function is called by:
		_LCD_Erase
 This function uses a non-reentrant model


 *************** function _LCD_WriteCmd *****************
 Defined at:
		line 31 in file "../src/system_config/miwikit_pic18f46j50_24j40/lcd.c"
 Parameters:    Size  Location     Type
  data            1    wreg     unsigned char 
 Auto vars:     Size  Location     Type
  data            1    2[BANK0 ] unsigned char 
 Return value:  Size  Location     Type
		None               void
 Registers used:
		wreg, status,2, cstack
 Tracked objects:
		On entry : 
		On exit  : 
		Unchanged: 
 Data sizes:     COMRAM   BANK0   BANK1   BANK2   BANK3   BANK4   BANK5   BANK6   BANK7   BANK8   BANK9  BANK10  BANK11  BANK12  BANK13  BANK14
      Params:         0       0       0       0       0       0       0       0       0       0       0       0       0       0       0       0
      Locals:         0       1       0       0       0       0       0       0       0       0       0       0       0       0       0       0
      Temps:          0       0       0       0       0       0       0       0       0       0       0       0       0       0       0       0
      Totals:         0       1       0       0       0       0       0       0       0       0       0       0       0       0       0       0
Total ram usage:        1 bytes
 Hardware stack levels used:    1
 Hardware stack levels required when called:    5
 This function calls:
		_SPIPut2
 This function is called by:
		_LCD_Initialize
		_LCD_Erase
		_LCD_Update
 This function uses a non-reentrant model


 *************** function _SPIPut2 *****************
 Defined at:
		line 144 in file "../src/system_config/miwikit_pic18f46j50_24j40/spi.c"
 Parameters:    Size  Location     Type
  v               1    wreg     unsigned char 
 Auto vars:     Size  Location     Type
  v               1    1[BANK0 ] unsigned char 
  i               1    0[BANK0 ] unsigned char 
 Return value:  Size  Location     Type
		None               void
 Registers used:
		wreg
 Tracked objects:
		On entry : 
		On exit  : 
		Unchanged: 
 Data sizes:     COMRAM   BANK0   BANK1   BANK2   BANK3   BANK4   BANK5   BANK6   BANK7   BANK8   BANK9  BANK10  BANK11  BANK12  BANK13  BANK14
      Params:         0       0       0       0       0       0       0       0       0       0       0       0       0       0       0       0
      Locals:         0       2       0       0       0       0       0       0       0       0       0       0       0       0       0       0
      Temps:          0       0       0       0       0       0       0       0       0       0       0       0       0       0       0       0
      Totals:         0       2       0       0       0       0       0       0       0       0       0       0       0       0       0       0
Total ram usage:        2 bytes
 Hardware stack levels used:    1
 Hardware stack levels required when called:    4
 This function calls:
		Nothing
 This function is called by:
		_LCD_WriteCmd
		_LCD_WriteData
		_SSTGetID
		_SPIGet2
		_EEPROMRead
		_SSTRead
		_SSTWrite
 This function uses a non-reentrant model


 *************** function _DELAY_ms *****************
 Defined at:
		line 108 in file "../src/system_config/miwikit_pic18f46j50_24j40/delay.c"
 Parameters:    Size  Location     Type
  ms              2   12[BANK0 ] unsigned int 
 Auto vars:     Size  Location     Type
  cyclesRequir    4   14[BANK0 ] long 
 Return value:  Size  Location     Type
		None               void
 Registers used:
		wreg, status,2, status,0, cstack
 Tracked objects:
		On entry : 
		On exit  : 
		Unchanged: 
 Data sizes:     COMRAM   BANK0   BANK1   BANK2   BANK3   BANK4   BANK5   BANK6   BANK7   BANK8   BANK9  BANK10  BANK11  BANK12  BANK13  BANK14
      Params:         0       2       0       0       0       0       0       0       0       0       0       0       0       0       0       0
      Locals:         0       4       0       0       0       0       0       0       0       0       0       0       0       0       0       0
      Temps:          0       0       0       0       0       0       0       0       0       0       0       0       0       0       0       0
      Totals:         0       6       0       0       0       0       0       0       0       0       0       0       0       0       0       0
Total ram usage:        6 bytes
 Hardware stack levels used:    1
 Hardware stack levels required when called:    5
 This function calls:
		___lmul
 This function is called by:
		_LCD_Initialize
		_LCD_Erase
		_LCD_Display
		_main
 This function uses a non-reentrant model


 *************** function ___lmul *****************
 Defined at:
		line 15 in file "C:\Program Files (x86)\Microchip\xc8\v1.35\sources\common\Umul32.c"
 Parameters:    Size  Location     Type
  multiplier      4    0[BANK0 ] unsigned long 
  multiplicand    4    4[BANK0 ] unsigned long 
 Auto vars:     Size  Location     Type
  product         4    8[BANK0 ] unsigned long 
 Return value:  Size  Location     Type
                  4    0[BANK0 ] unsigned long 
 Registers used:
		wreg, status,2, status,0
 Tracked objects:
		On entry : 
		On exit  : 
		Unchanged: 
 Data sizes:     COMRAM   BANK0   BANK1   BANK2   BANK3   BANK4   BANK5   BANK6   BANK7   BANK8   BANK9  BANK10  BANK11  BANK12  BANK13  BANK14
      Params:         0       8       0       0       0       0       0       0       0       0       0       0       0       0       0       0
      Locals:         0       4       0       0       0       0       0       0       0       0       0       0       0       0       0       0
      Temps:          0       0       0       0       0       0       0       0       0       0       0       0       0       0       0       0
      Totals:         0      12       0       0       0       0       0       0       0       0       0       0       0       0       0       0
Total ram usage:       12 bytes
 Hardware stack levels used:    1
 Hardware stack levels required when called:    4
 This function calls:
		Nothing
 This function is called by:
		_DELAY_10us
		_DELAY_ms
 This function uses a non-reentrant model


 *************** function _LCD_BacklightON *****************
 Defined at:
		line 102 in file "../src/system_config/miwikit_pic18f46j50_24j40/lcd.c"
 Parameters:    Size  Location     Type
		None
 Auto vars:     Size  Location     Type
		None
 Return value:  Size  Location     Type
		None               void
 Registers used:
		None
 Tracked objects:
		On entry : 
		On exit  : 
		Unchanged: 
 Data sizes:     COMRAM   BANK0   BANK1   BANK2   BANK3   BANK4   BANK5   BANK6   BANK7   BANK8   BANK9  BANK10  BANK11  BANK12  BANK13  BANK14
      Params:         0       0       0       0       0       0       0       0       0       0       0       0       0       0       0       0
      Locals:         0       0       0       0       0       0       0       0       0       0       0       0       0       0       0       0
      Temps:          0       0       0       0       0       0       0       0       0       0       0       0       0       0       0       0
      Totals:         0       0       0       0       0       0       0       0       0       0       0       0       0       0       0       0
Total ram usage:        0 bytes
 Hardware stack levels used:    1
 Hardware stack levels required when called:    4
 This function calls:
		Nothing
 This function is called by:
		_main
		_RangeDemo
		_TempDemo
 This function uses a non-reentrant model


 *************** function _LCD_BacklightOFF *****************
 Defined at:
		line 107 in file "../src/system_config/miwikit_pic18f46j50_24j40/lcd.c"
 Parameters:    Size  Location     Type
		None
 Auto vars:     Size  Location     Type
		None
 Return value:  Size  Location     Type
		None               void
 Registers used:
		None
 Tracked objects:
		On entry : 
		On exit  : 
		Unchanged: 
 Data sizes:     COMRAM   BANK0   BANK1   BANK2   BANK3   BANK4   BANK5   BANK6   BANK7   BANK8   BANK9  BANK10  BANK11  BANK12  BANK13  BANK14
      Params:         0       0       0       0       0       0       0       0       0       0       0       0       0       0       0       0
      Locals:         0       0       0       0       0       0       0       0       0       0       0       0       0       0       0       0
      Temps:          0       0       0       0       0       0       0       0       0       0       0       0       0       0       0       0
      Totals:         0       0       0       0       0       0       0       0       0       0       0       0       0       0       0       0
Total ram usage:        0 bytes
 Hardware stack levels used:    1
 Hardware stack levels required when called:    4
 This function calls:
		Nothing
 This function is called by:
		_main
		_RangeDemo
		_TempDemo
 This function uses a non-reentrant model


 *************** function _BUTTON_Pressed *****************
 Defined at:
		line 42 in file "../src/system_config/miwikit_pic18f46j50_24j40/button.c"
 Parameters:    Size  Location     Type
		None
 Auto vars:     Size  Location     Type
  t               4   18[BANK0 ] struct _MIWI_TICK
  tickDifferen    4   14[BANK0 ] struct _MIWI_TICK
  result          1   22[BANK0 ] unsigned char 
 Return value:  Size  Location     Type
                  1    wreg      unsigned char 
 Registers used:
		wreg, status,2, status,0, cstack
 Tracked objects:
		On entry : 
		On exit  : 
		Unchanged: 
 Data sizes:     COMRAM   BANK0   BANK1   BANK2   BANK3   BANK4   BANK5   BANK6   BANK7   BANK8   BANK9  BANK10  BANK11  BANK12  BANK13  BANK14
      Params:         0       0       0       0       0       0       0       0       0       0       0       0       0       0       0       0
      Locals:         0       9       0       0       0       0       0       0       0       0       0       0       0       0       0       0
      Temps:          0       4       0       0       0       0       0       0       0       0       0       0       0       0       0       0
      Totals:         0      13       0       0       0       0       0       0       0       0       0       0       0       0       0       0
Total ram usage:       13 bytes
 Hardware stack levels used:    1
 Hardware stack levels required when called:    5
 This function calls:
		_MiWi_TickGet
 This function is called by:
		_main
		_RangeDemo
		_SelfTest
		_TempDemo
 This function uses a non-reentrant model


 *************** function _MiApp_StartConnection *****************
 Defined at:
		line 4813 in file "../../../../../../framework/miwi/src/miwi_mesh.c"
 Parameters:    Size  Location     Type
  Mode            1    wreg     unsigned char 
  ScanDuration    1   51[BANK0 ] unsigned char 
  ChannelMap      4   52[BANK0 ] unsigned long 
 Auto vars:     Size  Location     Type
  Mode            1   57[BANK0 ] unsigned char 
  RSSIValue       1   59[BANK0 ] unsigned char 
  channel         1   58[BANK0 ] unsigned char 
 Return value:  Size  Location     Type
                  1    wreg      unsigned char 
 Registers used:
		wreg, fsr2l, fsr2h, status,2, status,0, tblptrl, tblptrh, tblptru, prodl, prodh, cstack
 Tracked objects:
		On entry : 
		On exit  : 
		Unchanged: 
 Data sizes:     COMRAM   BANK0   BANK1   BANK2   BANK3   BANK4   BANK5   BANK6   BANK7   BANK8   BANK9  BANK10  BANK11  BANK12  BANK13  BANK14
      Params:         0       5       0       0       0       0       0       0       0       0       0       0       0       0       0       0
      Locals:         0       3       0       0       0       0       0       0       0       0       0       0       0       0       0       0
      Temps:          0       1       0       0       0       0       0       0       0       0       0       0       0       0       0       0
      Totals:         0       9       0       0       0       0       0       0       0       0       0       0       0       0       0       0
Total ram usage:        9 bytes
 Hardware stack levels used:    1
 Hardware stack levels required when called:    9
 This function calls:
		_MiApp_NoiseDetection
		_MiApp_SetChannel
		_MiMAC_SetAltAddress
 This function is called by:
		_main
 This function uses a non-reentrant model


 *************** function _MiApp_NoiseDetection *****************
 Defined at:
		line 4940 in file "../../../../../../framework/miwi/src/miwi_mesh.c"
 Parameters:    Size  Location     Type
  ChannelMap      4   11[BANK0 ] unsigned long 
  ScanDuration    1   15[BANK0 ] unsigned char 
  DetectionMod    1   16[BANK0 ] unsigned char 
  RSSIValue       2   17[BANK0 ] PTR unsigned char 
		 -> MiApp_InitChannelHopping@RSSIValue(1), MiApp_StartConnection@RSSIValue(1), 
 Auto vars:     Size  Location     Type
  maxRSSI         1   50[BANK0 ] unsigned char 
  RSSIcheck       1   47[BANK0 ] unsigned char 
  k               1   46[BANK0 ] unsigned char 
  j               1   45[BANK0 ] unsigned char 
  t2              4   40[BANK0 ] struct _MIWI_TICK
  t1              4   36[BANK0 ] struct _MIWI_TICK
  channelMask     4   32[BANK0 ] unsigned long 
  i               1   49[BANK0 ] unsigned char 
  minRSSI         1   48[BANK0 ] unsigned char 
  OptimalChann    1   44[BANK0 ] unsigned char 
 Return value:  Size  Location     Type
                  1    wreg      unsigned char 
 Registers used:
		wreg, fsr2l, fsr2h, status,2, status,0, tblptrl, tblptrh, tblptru, prodl, prodh, cstack
 Tracked objects:
		On entry : 
		On exit  : 
		Unchanged: 
 Data sizes:     COMRAM   BANK0   BANK1   BANK2   BANK3   BANK4   BANK5   BANK6   BANK7   BANK8   BANK9  BANK10  BANK11  BANK12  BANK13  BANK14
      Params:         0       8       0       0       0       0       0       0       0       0       0       0       0       0       0       0
      Locals:         0      19       0       0       0       0       0       0       0       0       0       0       0       0       0       0
      Temps:          0      13       0       0       0       0       0       0       0       0       0       0       0       0       0       0
      Totals:         0      40       0       0       0       0       0       0       0       0       0       0       0       0       0       0
Total ram usage:       40 bytes
 Hardware stack levels used:    1
 Hardware stack levels required when called:    8
 This function calls:
		_MiApp_SetChannel
		_MiMAC_ChannelAssessment
		_MiWi_TickGet
		___awdiv
 This function is called by:
		_MiApp_StartConnection
		_MiApp_InitChannelHopping
 This function uses a non-reentrant model


 *************** function ___awdiv *****************
 Defined at:
		line 8 in file "C:\Program Files (x86)\Microchip\xc8\v1.35\sources\common\awdiv.c"
 Parameters:    Size  Location     Type
  dividend        2    0[BANK0 ] int 
  divisor         2    2[BANK0 ] int 
 Auto vars:     Size  Location     Type
  quotient        2    6[BANK0 ] int 
  sign            1    5[BANK0 ] unsigned char 
  counter         1    4[BANK0 ] unsigned char 
 Return value:  Size  Location     Type
                  2    0[BANK0 ] int 
 Registers used:
		wreg, status,2, status,0
 Tracked objects:
		On entry : 
		On exit  : 
		Unchanged: 
 Data sizes:     COMRAM   BANK0   BANK1   BANK2   BANK3   BANK4   BANK5   BANK6   BANK7   BANK8   BANK9  BANK10  BANK11  BANK12  BANK13  BANK14
      Params:         0       4       0       0       0       0       0       0       0       0       0       0       0       0       0       0
      Locals:         0       4       0       0       0       0       0       0       0       0       0       0       0       0       0       0
      Temps:          0       0       0       0       0       0       0       0       0       0       0       0       0       0       0       0
      Totals:         0       8       0       0       0       0       0       0       0       0       0       0       0       0       0       0
Total ram usage:        8 bytes
 Hardware stack levels used:    1
 Hardware stack levels required when called:    4
 This function calls:
		Nothing
 This function is called by:
		_MiApp_NoiseDetection
		_PrintTempLCD
		_MiMAC_SetPower
 This function uses a non-reentrant model


 *************** function _MiMAC_ChannelAssessment *****************
 Defined at:
		line 1057 in file "../../../../../../framework/driver/mrf_miwi/src/drv_mrf_miwi_24j40.c"
 Parameters:    Size  Location     Type
  AssessmentMo    1    wreg     unsigned char 
 Auto vars:     Size  Location     Type
  AssessmentMo    1    0[COMRAM] unsigned char 
  RSSIcheck       1    8[BANK0 ] unsigned char 
 Return value:  Size  Location     Type
                  1    wreg      unsigned char 
 Registers used:
		wreg, status,2, status,0, cstack
 Tracked objects:
		On entry : 
		On exit  : 
		Unchanged: 
 Data sizes:     COMRAM   BANK0   BANK1   BANK2   BANK3   BANK4   BANK5   BANK6   BANK7   BANK8   BANK9  BANK10  BANK11  BANK12  BANK13  BANK14
      Params:         0       0       0       0       0       0       0       0       0       0       0       0       0       0       0       0
      Locals:         0       1       0       0       0       0       0       0       0       0       0       0       0       0       0       0
      Temps:          0       0       0       0       0       0       0       0       0       0       0       0       0       0       0       0
      Totals:         0       1       0       0       0       0       0       0       0       0       0       0       0       0       0       0
Total ram usage:        1 bytes
 Hardware stack levels used:    1
 Hardware stack levels required when called:    7
 This function calls:
		_PHYGetLongRAMAddr
		_PHYGetShortRAMAddr
		_PHYSetShortRAMAddr
 This function is called by:
		_MiApp_NoiseDetection
 This function uses a non-reentrant model


 *************** function _MiApp_ProtocolInit *****************
 Defined at:
		line 3527 in file "../../../../../../framework/miwi/src/miwi_mesh.c"
 Parameters:    Size  Location     Type
  bNetworkFree    1    wreg     unsigned char 
 Auto vars:     Size  Location     Type
  bNetworkFree    1   35[BANK0 ] unsigned char 
  MIP             3   36[BANK0 ] struct .
  i               1   39[BANK0 ] unsigned char 
 Return value:  Size  Location     Type
                  1    wreg      unsigned char 
 Registers used:
		wreg, fsr2l, fsr2h, status,2, status,0, prodl, prodh, cstack
 Tracked objects:
		On entry : 
		On exit  : 
		Unchanged: 
 Data sizes:     COMRAM   BANK0   BANK1   BANK2   BANK3   BANK4   BANK5   BANK6   BANK7   BANK8   BANK9  BANK10  BANK11  BANK12  BANK13  BANK14
      Params:         0       0       0       0       0       0       0       0       0       0       0       0       0       0       0       0
      Locals:         0       5       0       0       0       0       0       0       0       0       0       0       0       0       0       0
      Temps:          0       1       0       0       0       0       0       0       0       0       0       0       0       0       0       0
      Totals:         0       6       0       0       0       0       0       0       0       0       0       0       0       0       0       0
Total ram usage:        6 bytes
 Hardware stack levels used:    1
 Hardware stack levels required when called:    9
 This function calls:
		_InitSymbolTimer
		_MiApp_SetChannel
		_MiMAC_Init
		_MiMAC_SetAltAddress
 This function is called by:
		_main
 This function uses a non-reentrant model


 *************** function _MiMAC_Init *****************
 Defined at:
		line 1465 in file "../../../../../../framework/driver/mrf_miwi/src/drv_mrf_miwi_24j40.c"
 Parameters:    Size  Location     Type
  initValue       3   30[BANK0 ] struct .
 Auto vars:     Size  Location     Type
  i               1   33[BANK0 ] unsigned char 
 Return value:  Size  Location     Type
                  1    wreg      unsigned char 
 Registers used:
		wreg, fsr2l, fsr2h, status,2, status,0, prodl, prodh, cstack
 Tracked objects:
		On entry : 
		On exit  : 
		Unchanged: 
 Data sizes:     COMRAM   BANK0   BANK1   BANK2   BANK3   BANK4   BANK5   BANK6   BANK7   BANK8   BANK9  BANK10  BANK11  BANK12  BANK13  BANK14
      Params:         0       3       0       0       0       0       0       0       0       0       0       0       0       0       0       0
      Locals:         0       1       0       0       0       0       0       0       0       0       0       0       0       0       0       0
      Temps:          0       0       0       0       0       0       0       0       0       0       0       0       0       0       0       0
      Totals:         0       4       0       0       0       0       0       0       0       0       0       0       0       0       0       0
Total ram usage:        4 bytes
 Hardware stack levels used:    1
 Hardware stack levels required when called:    8
 This function calls:
		_InitMRF24J40
 This function is called by:
		_MiApp_ProtocolInit
 This function uses a non-reentrant model


 *************** function _InitSymbolTimer *****************
 Defined at:
		line 59 in file "../src/system_config/miwikit_pic18f46j50_24j40/symbol.c"
 Parameters:    Size  Location     Type
		None
 Auto vars:     Size  Location     Type
		None
 Return value:  Size  Location     Type
		None               void
 Registers used:
		wreg, status,2
 Tracked objects:
		On entry : 
		On exit  : 
		Unchanged: 
 Data sizes:     COMRAM   BANK0   BANK1   BANK2   BANK3   BANK4   BANK5   BANK6   BANK7   BANK8   BANK9  BANK10  BANK11  BANK12  BANK13  BANK14
      Params:         0       0       0       0       0       0       0       0       0       0       0       0       0       0       0       0
      Locals:         0       0       0       0       0       0       0       0       0       0       0       0       0       0       0       0
      Temps:          0       0       0       0       0       0       0       0       0       0       0       0       0       0       0       0
      Totals:         0       0       0       0       0       0       0       0       0       0       0       0       0       0       0       0
Total ram usage:        0 bytes
 Hardware stack levels used:    1
 Hardware stack levels required when called:    4
 This function calls:
		Nothing
 This function is called by:
		_MiApp_ProtocolInit
 This function uses a non-reentrant model


 *************** function _MiApp_EstablishConnection *****************
 Defined at:
		line 4055 in file "../../../../../../framework/miwi/src/miwi_mesh.c"
 Parameters:    Size  Location     Type
  ActiveScanIn    1    wreg     unsigned char 
  Mode            1    2[BANK1 ] unsigned char 
 Auto vars:     Size  Location     Type
  ActiveScanIn    1   21[BANK1 ] unsigned char 
  t2              4   15[BANK1 ] struct _MIWI_TICK
  t1              4   11[BANK1 ] struct _MIWI_TICK
  i               1   20[BANK1 ] unsigned char 
  retry           1   19[BANK1 ] unsigned char 
 Return value:  Size  Location     Type
                  1    wreg      unsigned char 
 Registers used:
		wreg, fsr0l, fsr0h, fsr1l, fsr1h, fsr2l, fsr2h, status,2, status,0, tblptrl, tblptrh, tblptru, prodl, prodh, cstack
 Tracked objects:
		On entry : 
		On exit  : 
		Unchanged: 
 Data sizes:     COMRAM   BANK0   BANK1   BANK2   BANK3   BANK4   BANK5   BANK6   BANK7   BANK8   BANK9  BANK10  BANK11  BANK12  BANK13  BANK14
      Params:         0       0       1       0       0       0       0       0       0       0       0       0       0       0       0       0
      Locals:         0       0      11       0       0       0       0       0       0       0       0       0       0       0       0       0
      Temps:          0       0       8       0       0       0       0       0       0       0       0       0       0       0       0       0
      Totals:         0       0      20       0       0       0       0       0       0       0       0       0       0       0       0       0
Total ram usage:       20 bytes
 Hardware stack levels used:    1
 Hardware stack levels required when called:   17
 This function calls:
		_MiApp_DiscardMessage
		_MiApp_MessageAvailable
		_MiApp_SearchConnection
		_MiApp_SetChannel
		_MiMAC_SetAltAddress
		_MiWi_TickGet
		_OpenSocket
		_SearchForShortAddress
		_SendMACPacket
		_findNextNetworkEntry
 This function is called by:
		_main
 This function uses a non-reentrant model


 *************** function _OpenSocket *****************
 Defined at:
		line 2923 in file "../../../../../../framework/miwi/src/miwi_mesh.c"
 Parameters:    Size  Location     Type
		None
 Auto vars:     Size  Location     Type
  i               1  153[BANK0 ] unsigned char 
 Return value:  Size  Location     Type
		None               void
 Registers used:
		wreg, fsr0l, fsr0h, fsr1l, fsr1h, fsr2l, fsr2h, status,2, status,0, prodl, prodh, cstack
 Tracked objects:
		On entry : 
		On exit  : 
		Unchanged: 
 Data sizes:     COMRAM   BANK0   BANK1   BANK2   BANK3   BANK4   BANK5   BANK6   BANK7   BANK8   BANK9  BANK10  BANK11  BANK12  BANK13  BANK14
      Params:         0       0       0       0       0       0       0       0       0       0       0       0       0       0       0       0
      Locals:         0       1       0       0       0       0       0       0       0       0       0       0       0       0       0       0
      Temps:          0       0       2       0       0       0       0       0       0       0       0       0       0       0       0       0
      Totals:         0       1       2       0       0       0       0       0       0       0       0       0       0       0       0       0
Total ram usage:        3 bytes
 Hardware stack levels used:    1
 Hardware stack levels required when called:   16
 This function calls:
		_AddNodeToNetworkTable
		_MiApp_UnicastAddress
		_MiWi_TickGet
		_SearchForShortAddress
 This function is called by:
		_MiApp_EstablishConnection
 This function uses a non-reentrant model


 *************** function _MiApp_UnicastAddress *****************
 Defined at:
		line 4526 in file "../../../../../../framework/miwi/src/miwi_mesh.c"
 Parameters:    Size  Location     Type
  DestAddress     2  122[BANK0 ] PTR unsigned char 
		 -> tempShortAddress(2), openSocketInfo.ShortAddress1(2), openSocketInfo(27), 
  PermanentAdd    1  124[BANK0 ] unsigned char 
  SecEn           1  125[BANK0 ] unsigned char 
 Auto vars:     Size  Location     Type
  t2              4  138[BANK0 ] struct _MIWI_TICK
  t1              4  134[BANK0 ] struct _MIWI_TICK
  t2              4  146[BANK0 ] struct _MIWI_TICK
  t1              4  142[BANK0 ] struct _MIWI_TICK
  handle          1  152[BANK0 ] unsigned char 
  i               1  151[BANK0 ] unsigned char 
  MiWiFrameCon    1  150[BANK0 ] unsigned char 
 Return value:  Size  Location     Type
                  1    wreg      unsigned char 
 Registers used:
		wreg, fsr0l, fsr0h, fsr1l, fsr1h, fsr2l, fsr2h, status,2, status,0, prodl, prodh, cstack
 Tracked objects:
		On entry : 
		On exit  : 
		Unchanged: 
 Data sizes:     COMRAM   BANK0   BANK1   BANK2   BANK3   BANK4   BANK5   BANK6   BANK7   BANK8   BANK9  BANK10  BANK11  BANK12  BANK13  BANK14
      Params:         0       4       0       0       0       0       0       0       0       0       0       0       0       0       0       0
      Locals:         0      19       0       0       0       0       0       0       0       0       0       0       0       0       0       0
      Temps:          0       8       0       0       0       0       0       0       0       0       0       0       0       0       0       0
      Totals:         0      31       0       0       0       0       0       0       0       0       0       0       0       0       0       0
Total ram usage:       31 bytes
 Hardware stack levels used:    1
 Hardware stack levels required when called:   15
 This function calls:
		_MiApp_DiscardMessage
		_MiApp_MessageAvailable
		_MiMAC_SendPacket
		_MiWi_TickGet
		_RouteMessage
		_SearchForLongAddress
 This function is called by:
		_OpenSocket
 This function uses a non-reentrant model


 *************** function _MiApp_SearchConnection *****************
 Defined at:
		line 3939 in file "../../../../../../framework/miwi/src/miwi_mesh.c"
 Parameters:    Size  Location     Type
  ScanDuration    1    wreg     unsigned char 
  ChannelMap      4  122[BANK0 ] unsigned long 
 Auto vars:     Size  Location     Type
  ScanDuration    1  151[BANK0 ] unsigned char 
  t2              4  147[BANK0 ] struct _MIWI_TICK
  t1              4  143[BANK0 ] struct _MIWI_TICK
  channelMask     4  139[BANK0 ] unsigned long 
  i               1  153[BANK0 ] unsigned char 
  backupChanne    1  152[BANK0 ] unsigned char 
 Return value:  Size  Location     Type
                  1    wreg      unsigned char 
 Registers used:
		wreg, fsr0l, fsr0h, fsr1l, fsr1h, fsr2l, fsr2h, status,2, status,0, tblptrl, tblptrh, tblptru, prodl, prodh, cstack
 Tracked objects:
		On entry : 
		On exit  : 
		Unchanged: 
 Data sizes:     COMRAM   BANK0   BANK1   BANK2   BANK3   BANK4   BANK5   BANK6   BANK7   BANK8   BANK9  BANK10  BANK11  BANK12  BANK13  BANK14
      Params:         0       4       0       0       0       0       0       0       0       0       0       0       0       0       0       0
      Locals:         0      15       0       0       0       0       0       0       0       0       0       0       0       0       0       0
      Temps:          0      13       0       0       0       0       0       0       0       0       0       0       0       0       0       0
      Totals:         0      32       0       0       0       0       0       0       0       0       0       0       0       0       0       0
Total ram usage:       32 bytes
 Hardware stack levels used:    1
 Hardware stack levels required when called:   15
 This function calls:
		_MiApp_DiscardMessage
		_MiApp_MessageAvailable
		_MiApp_SetChannel
		_MiWi_TickGet
		_SendMACPacket
 This function is called by:
		_MiApp_EstablishConnection
		_main
		_SelfTest
 This function uses a non-reentrant model


 *************** function _MiApp_MessageAvailable *****************
 Defined at:
		line 4196 in file "../../../../../../framework/miwi/src/miwi_mesh.c"
 Parameters:    Size  Location     Type
		None
 Auto vars:     Size  Location     Type
		None
 Return value:  Size  Location     Type
                  1    wreg      unsigned char 
 Registers used:
		wreg, fsr0l, fsr0h, fsr1l, fsr1h, fsr2l, fsr2h, status,2, status,0, prodl, prodh, cstack
 Tracked objects:
		On entry : 
		On exit  : 
		Unchanged: 
 Data sizes:     COMRAM   BANK0   BANK1   BANK2   BANK3   BANK4   BANK5   BANK6   BANK7   BANK8   BANK9  BANK10  BANK11  BANK12  BANK13  BANK14
      Params:         0       0       0       0       0       0       0       0       0       0       0       0       0       0       0       0
      Locals:         0       0       0       0       0       0       0       0       0       0       0       0       0       0       0       0
      Temps:          0       0       0       0       0       0       0       0       0       0       0       0       0       0       0       0
      Totals:         0       0       0       0       0       0       0       0       0       0       0       0       0       0       0       0
Total ram usage:        0 bytes
 Hardware stack levels used:    1
 Hardware stack levels required when called:   14
 This function calls:
		_MiWiTasks
 This function is called by:
		_MiApp_SearchConnection
		_MiApp_EstablishConnection
		_MiApp_UnicastConnection
		_MiApp_UnicastAddress
		_main
		_RangeDemo
		_TempDemo
		_MiApp_ResyncConnection
 This function uses a non-reentrant model


 *************** function _MiWiTasks *****************
 Defined at:
		line 274 in file "../../../../../../framework/miwi/src/miwi_mesh.c"
 Parameters:    Size  Location     Type
		None
 Auto vars:     Size  Location     Type
  j               2   99[BANK0 ] unsigned int 
  j               1  116[BANK0 ] unsigned char 
  j               1  120[BANK0 ] unsigned char 
  CoordAddress    2   93[BANK0 ] struct .
  j               1  110[BANK0 ] unsigned char 
  entry           1   96[BANK0 ] unsigned char 
  CapacityByte    1  106[BANK0 ] struct .
  cIndex          1  105[BANK0 ] unsigned char 
  handle          1  117[BANK0 ] unsigned char 
  associateSta    1   97[BANK0 ] unsigned char 
  coordinatorN    1   98[BANK0 ] unsigned char 
  mask            1   95[BANK0 ] unsigned char 
  rxIndex         1  107[BANK0 ] unsigned char 
  sourceShortA    2  118[BANK0 ] struct .
  sourcePANID     2  114[BANK0 ] struct .
  destShortAdd    2  112[BANK0 ] struct .
  destPANID       2  108[BANK0 ] struct .
  j               1  111[BANK0 ] unsigned char 
  t1              4  101[BANK0 ] struct _MIWI_TICK
  t2              4   89[BANK0 ] struct _MIWI_TICK
  i               1  121[BANK0 ] unsigned char 
 Return value:  Size  Location     Type
		None               void
 Registers used:
		wreg, fsr0l, fsr0h, fsr1l, fsr1h, fsr2l, fsr2h, status,2, status,0, prodl, prodh, cstack
 Tracked objects:
		On entry : 
		On exit  : 
		Unchanged: 
 Data sizes:     COMRAM   BANK0   BANK1   BANK2   BANK3   BANK4   BANK5   BANK6   BANK7   BANK8   BANK9  BANK10  BANK11  BANK12  BANK13  BANK14
      Params:         0       0       0       0       0       0       0       0       0       0       0       0       0       0       0       0
      Locals:         0      33       0       0       0       0       0       0       0       0       0       0       0       0       0       0
      Temps:          0       8       0       0       0       0       0       0       0       0       0       0       0       0       0       0
      Totals:         0      41       0       0       0       0       0       0       0       0       0       0       0       0       0       0
Total ram usage:       41 bytes
 Hardware stack levels used:    1
 Hardware stack levels required when called:   13
 This function calls:
		_AddNodeToNetworkTable
		_BroadcastJitter
		_MiApp_SetChannel
		_MiMAC_DiscardPacket
		_MiMAC_ReceivedPacket
		_MiMAC_SendPacket
		_MiMAC_SetAltAddress
		_MiWi_TickGet
		_RouteMessage
		_SaveIndirectMessage
		_SearchForLongAddress
		_SearchForShortAddress
		_SendBeacon
		_SendIndirectPacket
		_SendMACPacket
		_UnicastShortAddress
 This function is called by:
		_MiApp_MessageAvailable
 This function uses a non-reentrant model


 *************** function _UnicastShortAddress *****************
 Defined at:
		line 4468 in file "../../../../../../framework/miwi/src/miwi_mesh.c"
 Parameters:    Size  Location     Type
  DestAddress     2   79[BANK0 ] PTR unsigned char 
		 -> openSocketInfo.ShortAddress2(2), openSocketInfo.ShortAddress1(2), openSocketInfo(27), 
 Auto vars:     Size  Location     Type
		None
 Return value:  Size  Location     Type
                  1    wreg      unsigned char 
 Registers used:
		wreg, fsr0l, fsr0h, fsr1l, fsr1h, fsr2l, fsr2h, status,2, status,0, prodl, prodh, cstack
 Tracked objects:
		On entry : 
		On exit  : 
		Unchanged: 
 Data sizes:     COMRAM   BANK0   BANK1   BANK2   BANK3   BANK4   BANK5   BANK6   BANK7   BANK8   BANK9  BANK10  BANK11  BANK12  BANK13  BANK14
      Params:         0       2       0       0       0       0       0       0       0       0       0       0       0       0       0       0
      Locals:         0       0       0       0       0       0       0       0       0       0       0       0       0       0       0       0
      Temps:          0       0       0       0       0       0       0       0       0       0       0       0       0       0       0       0
      Totals:         0       2       0       0       0       0       0       0       0       0       0       0       0       0       0       0
Total ram usage:        2 bytes
 Hardware stack levels used:    1
 Hardware stack levels required when called:   12
 This function calls:
		_RouteMessage
 This function is called by:
		_MiWiTasks
 This function uses a non-reentrant model


 *************** function _RouteMessage *****************
 Defined at:
		line 1895 in file "../../../../../../framework/miwi/src/miwi_mesh.c"
 Parameters:    Size  Location     Type
  PANID           2   69[BANK0 ] struct .
  ShortAddress    2   71[BANK0 ] struct .
  SecEn           1   73[BANK0 ] unsigned char 
 Auto vars:     Size  Location     Type
  i               1   78[BANK0 ] unsigned char 
  parentNode      1   77[BANK0 ] unsigned char 
 Return value:  Size  Location     Type
                  1    wreg      unsigned char 
 Registers used:
		wreg, fsr0l, fsr0h, fsr1l, fsr1h, fsr2l, fsr2h, status,2, status,0, prodl, prodh, cstack
 Tracked objects:
		On entry : 
		On exit  : 
		Unchanged: 
 Data sizes:     COMRAM   BANK0   BANK1   BANK2   BANK3   BANK4   BANK5   BANK6   BANK7   BANK8   BANK9  BANK10  BANK11  BANK12  BANK13  BANK14
      Params:         0       5       0       0       0       0       0       0       0       0       0       0       0       0       0       0
      Locals:         0       2       0       0       0       0       0       0       0       0       0       0       0       0       0       0
      Temps:          0       3       0       0       0       0       0       0       0       0       0       0       0       0       0       0
      Totals:         0      10       0       0       0       0       0       0       0       0       0       0       0       0       0       0
Total ram usage:       10 bytes
 Hardware stack levels used:    1
 Hardware stack levels required when called:   11
 This function calls:
		_MiMAC_SendPacket
		_SaveIndirectMessage
		_SendBeacon
		_SendMACPacket
 This function is called by:
		_MiWiTasks
		_MiApp_UnicastConnection
		_UnicastShortAddress
		_MiApp_UnicastAddress
 This function uses a non-reentrant model


 *************** function _SendBeacon *****************
 Defined at:
		line 3240 in file "../../../../../../framework/miwi/src/miwi_mesh.c"
 Parameters:    Size  Location     Type
		None
 Auto vars:     Size  Location     Type
  i               1   68[BANK0 ] unsigned char 
 Return value:  Size  Location     Type
		None               void
 Registers used:
		wreg, fsr0l, fsr0h, fsr1l, fsr1h, fsr2l, fsr2h, status,2, status,0, prodl, prodh, cstack
 Tracked objects:
		On entry : 
		On exit  : 
		Unchanged: 
 Data sizes:     COMRAM   BANK0   BANK1   BANK2   BANK3   BANK4   BANK5   BANK6   BANK7   BANK8   BANK9  BANK10  BANK11  BANK12  BANK13  BANK14
      Params:         0       0       0       0       0       0       0       0       0       0       0       0       0       0       0       0
      Locals:         0       1       0       0       0       0       0       0       0       0       0       0       0       0       0       0
      Temps:          0       0       0       0       0       0       0       0       0       0       0       0       0       0       0       0
      Totals:         0       1       0       0       0       0       0       0       0       0       0       0       0       0       0       0
Total ram usage:        1 bytes
 Hardware stack levels used:    1
 Hardware stack levels required when called:   10
 This function calls:
		_SendMACPacket
 This function is called by:
		_MiWiTasks
		_RouteMessage
 This function uses a non-reentrant model


 *************** function _SaveIndirectMessage *****************
 Defined at:
		line 3092 in file "../../../../../../framework/miwi/src/miwi_mesh.c"
 Parameters:    Size  Location     Type
  Broadcast       1    wreg     unsigned char 
  DestinationP    2   10[BANK0 ] struct .
  DestinationA    2   12[BANK0 ] PTR unsigned char 
		 -> RouteMessage@ShortAddress(2), NULL(0), 
  isAltAddress    1   14[BANK0 ] unsigned char 
  SecurityEnab    1   15[BANK0 ] unsigned char 
 Auto vars:     Size  Location     Type
  Broadcast       1   18[BANK0 ] unsigned char 
  i               1   20[BANK0 ] unsigned char 
  j               1   19[BANK0 ] unsigned char 
 Return value:  Size  Location     Type
                  1    wreg      unsigned char 
 Registers used:
		wreg, fsr1l, fsr1h, fsr2l, fsr2h, status,2, status,0, prodl, prodh, cstack
 Tracked objects:
		On entry : 
		On exit  : 
		Unchanged: 
 Data sizes:     COMRAM   BANK0   BANK1   BANK2   BANK3   BANK4   BANK5   BANK6   BANK7   BANK8   BANK9  BANK10  BANK11  BANK12  BANK13  BANK14
      Params:         0       6       0       0       0       0       0       0       0       0       0       0       0       0       0       0
      Locals:         0       3       0       0       0       0       0       0       0       0       0       0       0       0       0       0
      Temps:          0       2       0       0       0       0       0       0       0       0       0       0       0       0       0       0
      Totals:         0      11       0       0       0       0       0       0       0       0       0       0       0       0       0       0
Total ram usage:       11 bytes
 Hardware stack levels used:    1
 Hardware stack levels required when called:    5
 This function calls:
		_MiWi_TickGet
 This function is called by:
		_MiWiTasks
		_RouteMessage
		_MiApp_BroadcastPacket
 This function uses a non-reentrant model


 *************** function _SendIndirectPacket *****************
 Defined at:
		line 2275 in file "../../../../../../framework/miwi/src/miwi_mesh.c"
 Parameters:    Size  Location     Type
  Address         2   68[BANK0 ] PTR unsigned char 
		 -> NULL(0), RxBuffer.Payload(79), RxBuffer(160), 
  AltAddress      2   70[BANK0 ] PTR unsigned char 
		 -> NULL(0), RxBuffer.Payload(79), RxBuffer(160), 
  isAltAddress    1   72[BANK0 ] unsigned char 
 Auto vars:     Size  Location     Type
  i               1   78[BANK0 ] unsigned char 
  index           1   77[BANK0 ] unsigned char 
  j               1   76[BANK0 ] unsigned char 
  packetType      1   75[BANK0 ] unsigned char 
 Return value:  Size  Location     Type
		None               void
 Registers used:
		wreg, fsr0l, fsr0h, fsr1l, fsr1h, fsr2l, fsr2h, status,2, status,0, prodl, prodh, cstack
 Tracked objects:
		On entry : 
		On exit  : 
		Unchanged: 
 Data sizes:     COMRAM   BANK0   BANK1   BANK2   BANK3   BANK4   BANK5   BANK6   BANK7   BANK8   BANK9  BANK10  BANK11  BANK12  BANK13  BANK14
      Params:         0       5       0       0       0       0       0       0       0       0       0       0       0       0       0       0
      Locals:         0       4       0       0       0       0       0       0       0       0       0       0       0       0       0       0
      Temps:          0       2       0       0       0       0       0       0       0       0       0       0       0       0       0       0
      Totals:         0      11       0       0       0       0       0       0       0       0       0       0       0       0       0       0
Total ram usage:       11 bytes
 Hardware stack levels used:    1
 Hardware stack levels required when called:   10
 This function calls:
		_MiMAC_SendPacket
		_SearchForLongAddress
		_SearchForShortAddress
		_SendMACPacket
		_isSameAddress
 This function is called by:
		_MiWiTasks
 This function uses a non-reentrant model


 *************** function _isSameAddress *****************
 Defined at:
		line 3406 in file "../../../../../../framework/miwi/src/miwi_mesh.c"
 Parameters:    Size  Location     Type
  Address1        2    0[BANK0 ] PTR unsigned char 
		 -> ConnectionTable(140), 
  Address2        2    2[BANK0 ] PTR unsigned char 
		 -> indirectMessages(134), 
 Auto vars:     Size  Location     Type
  i               1    6[BANK0 ] unsigned char 
 Return value:  Size  Location     Type
                  1    wreg      unsigned char 
 Registers used:
		wreg, fsr1l, fsr1h, fsr2l, fsr2h, status,2, status,0, prodl, prodh
 Tracked objects:
		On entry : 
		On exit  : 
		Unchanged: 
 Data sizes:     COMRAM   BANK0   BANK1   BANK2   BANK3   BANK4   BANK5   BANK6   BANK7   BANK8   BANK9  BANK10  BANK11  BANK12  BANK13  BANK14
      Params:         0       4       0       0       0       0       0       0       0       0       0       0       0       0       0       0
      Locals:         0       1       0       0       0       0       0       0       0       0       0       0       0       0       0       0
      Temps:          0       2       0       0       0       0       0       0       0       0       0       0       0       0       0       0
      Totals:         0       7       0       0       0       0       0       0       0       0       0       0       0       0       0       0
Total ram usage:        7 bytes
 Hardware stack levels used:    1
 Hardware stack levels required when called:    4
 This function calls:
		Nothing
 This function is called by:
		_SendIndirectPacket
 This function uses a non-reentrant model


 *************** function _SendMACPacket *****************
 Defined at:
		line 2213 in file "../../../../../../framework/miwi/src/miwi_mesh.c"
 Parameters:    Size  Location     Type
  PANID           2   61[BANK0 ] PTR unsigned char 
		 -> ConnectionTable.PANID(2), tempPANID(2), ConnectionTable(140), myPANID(2), 
  Address         2   63[BANK0 ] PTR unsigned char 
		 -> ConnectionTable.AltAddress(2), NULL(0), ConnectionTable(140), RxBuffer.Payload(79), 
		 -> RxBuffer(160), 
  PacketType      1   65[BANK0 ] unsigned char 
  ModeMask        1   66[BANK0 ] unsigned char 
 Auto vars:     Size  Location     Type
		None
 Return value:  Size  Location     Type
                  1    wreg      unsigned char 
 Registers used:
		wreg, fsr0l, fsr0h, fsr2l, fsr2h, status,2, status,0, prodl, prodh, cstack
 Tracked objects:
		On entry : 
		On exit  : 
		Unchanged: 
 Data sizes:     COMRAM   BANK0   BANK1   BANK2   BANK3   BANK4   BANK5   BANK6   BANK7   BANK8   BANK9  BANK10  BANK11  BANK12  BANK13  BANK14
      Params:         0       6       0       0       0       0       0       0       0       0       0       0       0       0       0       0
      Locals:         0       0       0       0       0       0       0       0       0       0       0       0       0       0       0       0
      Temps:          0       1       0       0       0       0       0       0       0       0       0       0       0       0       0       0
      Totals:         0       7       0       0       0       0       0       0       0       0       0       0       0       0       0       0
Total ram usage:        7 bytes
 Hardware stack levels used:    1
 Hardware stack levels required when called:    9
 This function calls:
		_MiMAC_SendPacket
 This function is called by:
		_MiWiTasks
		_RouteMessage
		_SendIndirectPacket
		_SendBeacon
		_MiApp_SearchConnection
		_MiApp_EstablishConnection
 This function uses a non-reentrant model


 *************** function _MiMAC_SendPacket *****************
 Defined at:
		line 736 in file "../../../../../../framework/driver/mrf_miwi/src/drv_mrf_miwi_24j40.c"
 Parameters:    Size  Location     Type
  transParam      7   30[BANK0 ] struct .
  MACPayload      2   37[BANK0 ] PTR unsigned char 
		 -> TxBuffer(51), 
  MACPayloadLe    1   39[BANK0 ] unsigned char 
 Auto vars:     Size  Location     Type
  t2              4   52[BANK0 ] struct _MIWI_TICK
  t1              4   48[BANK0 ] struct _MIWI_TICK
  loc             1   60[BANK0 ] unsigned char 
  i               1   59[BANK0 ] unsigned char 
  headerLength    1   58[BANK0 ] unsigned char 
  frameControl    1   57[BANK0 ] unsigned char 
  IntraPAN        1   56[BANK0 ] unsigned char 
 Return value:  Size  Location     Type
                  1    wreg      unsigned char 
 Registers used:
		wreg, fsr2l, fsr2h, status,2, status,0, prodl, prodh, cstack
 Tracked objects:
		On entry : 
		On exit  : 
		Unchanged: 
 Data sizes:     COMRAM   BANK0   BANK1   BANK2   BANK3   BANK4   BANK5   BANK6   BANK7   BANK8   BANK9  BANK10  BANK11  BANK12  BANK13  BANK14
      Params:         0      10       0       0       0       0       0       0       0       0       0       0       0       0       0       0
      Locals:         0      13       0       0       0       0       0       0       0       0       0       0       0       0       0       0
      Temps:          0       8       0       0       0       0       0       0       0       0       0       0       0       0       0       0
      Totals:         0      31       0       0       0       0       0       0       0       0       0       0       0       0       0       0
Total ram usage:       31 bytes
 Hardware stack levels used:    1
 Hardware stack levels required when called:    8
 This function calls:
		_InitMRF24J40
		_MiMAC_SetAltAddress
		_MiWi_TickGet
		_PHYSetLongRAMAddr
		_PHYSetShortRAMAddr
 This function is called by:
		_MiWiTasks
		_RouteMessage
		_SendMACPacket
		_SendIndirectPacket
		_MiApp_BroadcastPacket
		_MiApp_UnicastAddress
		_StartChannelHopping
		_MiApp_RemoveConnection
 This function uses a non-reentrant model


 *************** function _MiMAC_SetAltAddress *****************
 Defined at:
		line 1421 in file "../../../../../../framework/driver/mrf_miwi/src/drv_mrf_miwi_24j40.c"
 Parameters:    Size  Location     Type
  Address         2    5[BANK0 ] PTR unsigned char 
		 -> tempShortAddress(2), myShortAddress(2), myNetworkAddress(2), 
  PANID           2    7[BANK0 ] PTR unsigned char 
		 -> myPANID(2), MAC_PANID(2), 
 Auto vars:     Size  Location     Type
		None
 Return value:  Size  Location     Type
                  1    wreg      unsigned char 
 Registers used:
		wreg, fsr2l, fsr2h, status,2, status,0, cstack
 Tracked objects:
		On entry : 
		On exit  : 
		Unchanged: 
 Data sizes:     COMRAM   BANK0   BANK1   BANK2   BANK3   BANK4   BANK5   BANK6   BANK7   BANK8   BANK9  BANK10  BANK11  BANK12  BANK13  BANK14
      Params:         0       4       0       0       0       0       0       0       0       0       0       0       0       0       0       0
      Locals:         0       0       0       0       0       0       0       0       0       0       0       0       0       0       0       0
      Temps:          0       0       0       0       0       0       0       0       0       0       0       0       0       0       0       0
      Totals:         0       4       0       0       0       0       0       0       0       0       0       0       0       0       0       0
Total ram usage:        4 bytes
 Hardware stack levels used:    1
 Hardware stack levels required when called:    6
 This function calls:
		_PHYSetShortRAMAddr
 This function is called by:
		_MiMAC_SendPacket
		_MiWiTasks
		_MiApp_ProtocolInit
		_MiApp_EstablishConnection
		_MiApp_StartConnection
		_MiApp_RemoveConnection
 This function uses a non-reentrant model


 *************** function _InitMRF24J40 *****************
 Defined at:
		line 201 in file "../../../../../../framework/driver/mrf_miwi/src/drv_mrf_miwi_24j40.c"
 Parameters:    Size  Location     Type
		None
 Auto vars:     Size  Location     Type
  _ms             4   23[BANK0 ] unsigned long 
  _dcnt           4   15[BANK0 ] unsigned long 
  _ms             4   19[BANK0 ] unsigned long 
  _dcnt           4   11[BANK0 ] unsigned long 
  j               2   27[BANK0 ] unsigned int 
  i               1   29[BANK0 ] unsigned char 
 Return value:  Size  Location     Type
		None               void
 Registers used:
		wreg, fsr2l, fsr2h, status,2, status,0, prodl, prodh, cstack
 Tracked objects:
		On entry : 
		On exit  : 
		Unchanged: 
 Data sizes:     COMRAM   BANK0   BANK1   BANK2   BANK3   BANK4   BANK5   BANK6   BANK7   BANK8   BANK9  BANK10  BANK11  BANK12  BANK13  BANK14
      Params:         0       0       0       0       0       0       0       0       0       0       0       0       0       0       0       0
      Locals:         0      19       0       0       0       0       0       0       0       0       0       0       0       0       0       0
      Temps:          0       1       0       0       0       0       0       0       0       0       0       0       0       0       0       0
      Totals:         0      20       0       0       0       0       0       0       0       0       0       0       0       0       0       0
Total ram usage:       20 bytes
 Hardware stack levels used:    1
 Hardware stack levels required when called:    7
 This function calls:
		_MiMAC_SetChannel
		_PHYGetLongRAMAddr
		_PHYGetShortRAMAddr
		_PHYSetLongRAMAddr
		_PHYSetShortRAMAddr
 This function is called by:
		_MiMAC_SendPacket
		_MiMAC_Init
 This function uses a non-reentrant model


 *************** function _PHYGetShortRAMAddr *****************
 Defined at:
		line 154 in file "../../../../../../framework/driver/mrf_miwi/src/drv_mrf_miwi_24j40.c"
 Parameters:    Size  Location     Type
  address         1    wreg     unsigned char 
 Auto vars:     Size  Location     Type
  address         1    2[BANK0 ] unsigned char 
  tmpRFIE         1    4[BANK0 ] volatile unsigned char 
  toReturn        1    3[BANK0 ] unsigned char 
 Return value:  Size  Location     Type
                  1    wreg      unsigned char 
 Registers used:
		wreg, status,2, cstack
 Tracked objects:
		On entry : 
		On exit  : 
		Unchanged: 
 Data sizes:     COMRAM   BANK0   BANK1   BANK2   BANK3   BANK4   BANK5   BANK6   BANK7   BANK8   BANK9  BANK10  BANK11  BANK12  BANK13  BANK14
      Params:         0       0       0       0       0       0       0       0       0       0       0       0       0       0       0       0
      Locals:         0       3       0       0       0       0       0       0       0       0       0       0       0       0       0       0
      Temps:          0       0       0       0       0       0       0       0       0       0       0       0       0       0       0       0
      Totals:         0       3       0       0       0       0       0       0       0       0       0       0       0       0       0       0
Total ram usage:        3 bytes
 Hardware stack levels used:    1
 Hardware stack levels required when called:    6
 This function calls:
		_SPIGet
		_SPIPut
 This function is called by:
		_InitMRF24J40
		_MiMAC_ChannelAssessment
 This function uses a non-reentrant model


 *************** function _PHYGetLongRAMAddr *****************
 Defined at:
		line 185 in file "../../../../../../framework/driver/mrf_miwi/src/drv_mrf_miwi_24j40.c"
 Parameters:    Size  Location     Type
  address         2    2[BANK0 ] unsigned int 
 Auto vars:     Size  Location     Type
  tmpRFIE         1    7[BANK0 ] volatile unsigned char 
  toReturn        1    6[BANK0 ] unsigned char 
 Return value:  Size  Location     Type
                  1    wreg      unsigned char 
 Registers used:
		wreg, status,2, status,0, cstack
 Tracked objects:
		On entry : 
		On exit  : 
		Unchanged: 
 Data sizes:     COMRAM   BANK0   BANK1   BANK2   BANK3   BANK4   BANK5   BANK6   BANK7   BANK8   BANK9  BANK10  BANK11  BANK12  BANK13  BANK14
      Params:         0       2       0       0       0       0       0       0       0       0       0       0       0       0       0       0
      Locals:         0       2       0       0       0       0       0       0       0       0       0       0       0       0       0       0
      Temps:          0       2       0       0       0       0       0       0       0       0       0       0       0       0       0       0
      Totals:         0       6       0       0       0       0       0       0       0       0       0       0       0       0       0       0
Total ram usage:        6 bytes
 Hardware stack levels used:    1
 Hardware stack levels required when called:    6
 This function calls:
		_SPIGet
		_SPIPut
 This function is called by:
		_InitMRF24J40
		_MiMAC_ChannelAssessment
 This function uses a non-reentrant model


 *************** function _SPIGet *****************
 Defined at:
		line 102 in file "../src/system_config/miwikit_pic18f46j50_24j40/spi.c"
 Parameters:    Size  Location     Type
		None
 Auto vars:     Size  Location     Type
		None
 Return value:  Size  Location     Type
                  1    wreg      unsigned char 
 Registers used:
		wreg, status,2, cstack
 Tracked objects:
		On entry : 
		On exit  : 
		Unchanged: 
 Data sizes:     COMRAM   BANK0   BANK1   BANK2   BANK3   BANK4   BANK5   BANK6   BANK7   BANK8   BANK9  BANK10  BANK11  BANK12  BANK13  BANK14
      Params:         0       0       0       0       0       0       0       0       0       0       0       0       0       0       0       0
      Locals:         0       0       0       0       0       0       0       0       0       0       0       0       0       0       0       0
      Temps:          0       0       0       0       0       0       0       0       0       0       0       0       0       0       0       0
      Totals:         0       0       0       0       0       0       0       0       0       0       0       0       0       0       0       0
Total ram usage:        0 bytes
 Hardware stack levels used:    1
 Hardware stack levels required when called:    5
 This function calls:
		_SPIPut
 This function is called by:
		_PHYGetShortRAMAddr
		_PHYGetLongRAMAddr
 This function uses a non-reentrant model


 *************** function _MiMAC_ReceivedPacket *****************
 Defined at:
		line 366 in file "../../../../../../framework/driver/mrf_miwi/src/drv_mrf_miwi_24j40.c"
 Parameters:    Size  Location     Type
		None
 Auto vars:     Size  Location     Type
  bIntraPAN       1    8[BANK0 ] unsigned char 
  addrMode        1    6[BANK0 ] unsigned char 
  i               1    7[BANK0 ] unsigned char 
 Return value:  Size  Location     Type
                  1    wreg      unsigned char 
 Registers used:
		wreg, fsr2l, fsr2h, status,2, status,0, prodl, prodh, cstack
 Tracked objects:
		On entry : 
		On exit  : 
		Unchanged: 
 Data sizes:     COMRAM   BANK0   BANK1   BANK2   BANK3   BANK4   BANK5   BANK6   BANK7   BANK8   BANK9  BANK10  BANK11  BANK12  BANK13  BANK14
      Params:         0       0       0       0       0       0       0       0       0       0       0       0       0       0       0       0
      Locals:         0       3       0       0       0       0       0       0       0       0       0       0       0       0       0       0
      Temps:          0       6       0       0       0       0       0       0       0       0       0       0       0       0       0       0
      Totals:         0       9       0       0       0       0       0       0       0       0       0       0       0       0       0       0
Total ram usage:        9 bytes
 Hardware stack levels used:    1
 Hardware stack levels required when called:    5
 This function calls:
		_MiMAC_DiscardPacket
 This function is called by:
		_MiWiTasks
 This function uses a non-reentrant model


 *************** function _MiApp_SetChannel *****************
 Defined at:
		line 3827 in file "../../../../../../framework/miwi/src/miwi_mesh.c"
 Parameters:    Size  Location     Type
  channel         1    wreg     unsigned char 
 Auto vars:     Size  Location     Type
  channel         1   10[BANK0 ] unsigned char 
 Return value:  Size  Location     Type
                  1    wreg      unsigned char 
 Registers used:
		wreg, status,2, status,0, cstack
 Tracked objects:
		On entry : 
		On exit  : 
		Unchanged: 
 Data sizes:     COMRAM   BANK0   BANK1   BANK2   BANK3   BANK4   BANK5   BANK6   BANK7   BANK8   BANK9  BANK10  BANK11  BANK12  BANK13  BANK14
      Params:         0       0       0       0       0       0       0       0       0       0       0       0       0       0       0       0
      Locals:         0       1       0       0       0       0       0       0       0       0       0       0       0       0       0       0
      Temps:          0       0       0       0       0       0       0       0       0       0       0       0       0       0       0       0
      Totals:         0       1       0       0       0       0       0       0       0       0       0       0       0       0       0       0
Total ram usage:        1 bytes
 Hardware stack levels used:    1
 Hardware stack levels required when called:    7
 This function calls:
		_MiMAC_SetChannel
 This function is called by:
		_MiWiTasks
		_MiApp_ProtocolInit
		_MiApp_SearchConnection
		_MiApp_EstablishConnection
		_MiApp_StartConnection
		_MiApp_NoiseDetection
		_main
		_SelfTest
		_MiApp_ResyncConnection
		_StartChannelHopping
		_MiApp_InitChannelHopping
 This function uses a non-reentrant model


 *************** function _MiMAC_SetChannel *****************
 Defined at:
		line 1302 in file "../../../../../../framework/driver/mrf_miwi/src/drv_mrf_miwi_24j40.c"
 Parameters:    Size  Location     Type
  channel         1    wreg     unsigned char 
  offsetFreq      1    8[BANK0 ] unsigned char 
 Auto vars:     Size  Location     Type
  channel         1    9[BANK0 ] unsigned char 
 Return value:  Size  Location     Type
                  1    wreg      unsigned char 
 Registers used:
		wreg, status,2, status,0, cstack
 Tracked objects:
		On entry : 
		On exit  : 
		Unchanged: 
 Data sizes:     COMRAM   BANK0   BANK1   BANK2   BANK3   BANK4   BANK5   BANK6   BANK7   BANK8   BANK9  BANK10  BANK11  BANK12  BANK13  BANK14
      Params:         0       1       0       0       0       0       0       0       0       0       0       0       0       0       0       0
      Locals:         0       1       0       0       0       0       0       0       0       0       0       0       0       0       0       0
      Temps:          0       0       0       0       0       0       0       0       0       0       0       0       0       0       0       0
      Totals:         0       2       0       0       0       0       0       0       0       0       0       0       0       0       0       0
Total ram usage:        2 bytes
 Hardware stack levels used:    1
 Hardware stack levels required when called:    6
 This function calls:
		_PHYSetLongRAMAddr
		_PHYSetShortRAMAddr
 This function is called by:
		_InitMRF24J40
		_MiApp_SetChannel
 This function uses a non-reentrant model


 *************** function _PHYSetShortRAMAddr *****************
 Defined at:
		line 124 in file "../../../../../../framework/driver/mrf_miwi/src/drv_mrf_miwi_24j40.c"
 Parameters:    Size  Location     Type
  address         1    wreg     unsigned char 
  value           1    2[BANK0 ] unsigned char 
 Auto vars:     Size  Location     Type
  address         1    3[BANK0 ] unsigned char 
  tmpRFIE         1    4[BANK0 ] volatile unsigned char 
 Return value:  Size  Location     Type
		None               void
 Registers used:
		wreg, status,2, cstack
 Tracked objects:
		On entry : 
		On exit  : 
		Unchanged: 
 Data sizes:     COMRAM   BANK0   BANK1   BANK2   BANK3   BANK4   BANK5   BANK6   BANK7   BANK8   BANK9  BANK10  BANK11  BANK12  BANK13  BANK14
      Params:         0       1       0       0       0       0       0       0       0       0       0       0       0       0       0       0
      Locals:         0       2       0       0       0       0       0       0       0       0       0       0       0       0       0       0
      Temps:          0       0       0       0       0       0       0       0       0       0       0       0       0       0       0       0
      Totals:         0       3       0       0       0       0       0       0       0       0       0       0       0       0       0       0
Total ram usage:        3 bytes
 Hardware stack levels used:    1
 Hardware stack levels required when called:    5
 This function calls:
		_SPIPut
 This function is called by:
		_InitMRF24J40
		_MiMAC_SendPacket
		_MiMAC_ChannelAssessment
		_MiMAC_SetChannel
		_MiMAC_SetAltAddress
 This function uses a non-reentrant model


 *************** function _PHYSetLongRAMAddr *****************
 Defined at:
		line 90 in file "../../../../../../framework/driver/mrf_miwi/src/drv_mrf_miwi_24j40.c"
 Parameters:    Size  Location     Type
  address         2    2[BANK0 ] unsigned int 
  value           1    4[BANK0 ] unsigned char 
 Auto vars:     Size  Location     Type
  tmpRFIE         1    7[BANK0 ] volatile unsigned char 
 Return value:  Size  Location     Type
		None               void
 Registers used:
		wreg, status,2, status,0, cstack
 Tracked objects:
		On entry : 
		On exit  : 
		Unchanged: 
 Data sizes:     COMRAM   BANK0   BANK1   BANK2   BANK3   BANK4   BANK5   BANK6   BANK7   BANK8   BANK9  BANK10  BANK11  BANK12  BANK13  BANK14
      Params:         0       3       0       0       0       0       0       0       0       0       0       0       0       0       0       0
      Locals:         0       1       0       0       0       0       0       0       0       0       0       0       0       0       0       0
      Temps:          0       2       0       0       0       0       0       0       0       0       0       0       0       0       0       0
      Totals:         0       6       0       0       0       0       0       0       0       0       0       0       0       0       0       0
Total ram usage:        6 bytes
 Hardware stack levels used:    1
 Hardware stack levels required when called:    5
 This function calls:
		_SPIPut
 This function is called by:
		_InitMRF24J40
		_MiMAC_SendPacket
		_MiMAC_SetChannel
		_MiMAC_SetPower
 This function uses a non-reentrant model


 *************** function _SPIPut *****************
 Defined at:
		line 45 in file "../src/system_config/miwikit_pic18f46j50_24j40/spi.c"
 Parameters:    Size  Location     Type
  v               1    wreg     unsigned char 
 Auto vars:     Size  Location     Type
  v               1    1[BANK0 ] unsigned char 
  i               1    0[BANK0 ] unsigned char 
 Return value:  Size  Location     Type
		None               void
 Registers used:
		wreg
 Tracked objects:
		On entry : 
		On exit  : 
		Unchanged: 
 Data sizes:     COMRAM   BANK0   BANK1   BANK2   BANK3   BANK4   BANK5   BANK6   BANK7   BANK8   BANK9  BANK10  BANK11  BANK12  BANK13  BANK14
      Params:         0       0       0       0       0       0       0       0       0       0       0       0       0       0       0       0
      Locals:         0       2       0       0       0       0       0       0       0       0       0       0       0       0       0       0
      Temps:          0       0       0       0       0       0       0       0       0       0       0       0       0       0       0       0
      Totals:         0       2       0       0       0       0       0       0       0       0       0       0       0       0       0       0
Total ram usage:        2 bytes
 Hardware stack levels used:    1
 Hardware stack levels required when called:    4
 This function calls:
		Nothing
 This function is called by:
		_PHYSetLongRAMAddr
		_PHYSetShortRAMAddr
		_PHYGetShortRAMAddr
		_PHYGetLongRAMAddr
		_SPIGet
		_SSTWrite
 This function uses a non-reentrant model


 *************** function _BroadcastJitter *****************
 Defined at:
		line 238 in file "../../../../../../framework/miwi/src/miwi_mesh.c"
 Parameters:    Size  Location     Type
  range           1    wreg     unsigned char 
 Auto vars:     Size  Location     Type
  range           1   26[BANK0 ] unsigned char 
  t2              4   22[BANK0 ] struct _MIWI_TICK
  t1              4   18[BANK0 ] struct _MIWI_TICK
  jitter          1   27[BANK0 ] unsigned char 
 Return value:  Size  Location     Type
		None               void
 Registers used:
		wreg, status,2, status,0, cstack
 Tracked objects:
		On entry : 
		On exit  : 
		Unchanged: 
 Data sizes:     COMRAM   BANK0   BANK1   BANK2   BANK3   BANK4   BANK5   BANK6   BANK7   BANK8   BANK9  BANK10  BANK11  BANK12  BANK13  BANK14
      Params:         0       0       0       0       0       0       0       0       0       0       0       0       0       0       0       0
      Locals:         0      10       0       0       0       0       0       0       0       0       0       0       0       0       0       0
      Temps:          0       8       0       0       0       0       0       0       0       0       0       0       0       0       0       0
      Totals:         0      18       0       0       0       0       0       0       0       0       0       0       0       0       0       0
Total ram usage:       18 bytes
 Hardware stack levels used:    1
 Hardware stack levels required when called:    5
 This function calls:
		_MiWi_TickGet
		___lbmod
 This function is called by:
		_MiWiTasks
 This function uses a non-reentrant model


 *************** function ___lbmod *****************
 Defined at:
		line 4 in file "C:\Program Files (x86)\Microchip\xc8\v1.35\sources\common\lbmod.c"
 Parameters:    Size  Location     Type
  dividend        1    wreg     unsigned char 
  divisor         1    0[BANK0 ] unsigned char 
 Auto vars:     Size  Location     Type
  dividend        1    1[BANK0 ] unsigned char 
  rem             1    3[BANK0 ] unsigned char 
  counter         1    2[BANK0 ] unsigned char 
 Return value:  Size  Location     Type
                  1    wreg      unsigned char 
 Registers used:
		wreg, status,2, status,0
 Tracked objects:
		On entry : 
		On exit  : 
		Unchanged: 
 Data sizes:     COMRAM   BANK0   BANK1   BANK2   BANK3   BANK4   BANK5   BANK6   BANK7   BANK8   BANK9  BANK10  BANK11  BANK12  BANK13  BANK14
      Params:         0       1       0       0       0       0       0       0       0       0       0       0       0       0       0       0
      Locals:         0       3       0       0       0       0       0       0       0       0       0       0       0       0       0       0
      Temps:          0       0       0       0       0       0       0       0       0       0       0       0       0       0       0       0
      Totals:         0       4       0       0       0       0       0       0       0       0       0       0       0       0       0       0
Total ram usage:        4 bytes
 Hardware stack levels used:    1
 Hardware stack levels required when called:    4
 This function calls:
		Nothing
 This function is called by:
		_BroadcastJitter
 This function uses a non-reentrant model


 *************** function _MiWi_TickGet *****************
 Defined at:
		line 104 in file "../src/system_config/miwikit_pic18f46j50_24j40/symbol.c"
 Parameters:    Size  Location     Type
		None
 Auto vars:     Size  Location     Type
  currentTime     4    6[BANK0 ] struct _MIWI_TICK
  failureCount    1    5[BANK0 ] unsigned char 
 Return value:  Size  Location     Type
                  4    0[BANK0 ] struct _MIWI_TICK
 Registers used:
		wreg, status,2, status,0
 Tracked objects:
		On entry : 
		On exit  : 
		Unchanged: 
 Data sizes:     COMRAM   BANK0   BANK1   BANK2   BANK3   BANK4   BANK5   BANK6   BANK7   BANK8   BANK9  BANK10  BANK11  BANK12  BANK13  BANK14
      Params:         0       4       0       0       0       0       0       0       0       0       0       0       0       0       0       0
      Locals:         0       5       0       0       0       0       0       0       0       0       0       0       0       0       0       0
      Temps:          0       1       0       0       0       0       0       0       0       0       0       0       0       0       0       0
      Totals:         0      10       0       0       0       0       0       0       0       0       0       0       0       0       0       0
Total ram usage:       10 bytes
 Hardware stack levels used:    1
 Hardware stack levels required when called:    4
 This function calls:
		Nothing
 This function is called by:
		_MiMAC_SendPacket
		_BroadcastJitter
		_MiWiTasks
		_OpenSocket
		_SaveIndirectMessage
		_MiApp_SearchConnection
		_MiApp_EstablishConnection
		_MiApp_UnicastConnection
		_MiApp_UnicastAddress
		_MiApp_NoiseDetection
		_BUTTON_Pressed
		_main
		_RangeDemo
		_TempDemo
		_MiApp_ResyncConnection
		_StartChannelHopping
 This function uses a non-reentrant model


 *************** function _AddNodeToNetworkTable *****************
 Defined at:
		line 3336 in file "../../../../../../framework/miwi/src/miwi_mesh.c"
 Parameters:    Size  Location     Type
		None
 Auto vars:     Size  Location     Type
  i               1    8[BANK0 ] unsigned char 
  handle          1    9[BANK0 ] unsigned char 
 Return value:  Size  Location     Type
                  1    wreg      unsigned char 
 Registers used:
		wreg, fsr1l, fsr1h, fsr2l, fsr2h, status,2, status,0, prodl, prodh, cstack
 Tracked objects:
		On entry : 
		On exit  : 
		Unchanged: 
 Data sizes:     COMRAM   BANK0   BANK1   BANK2   BANK3   BANK4   BANK5   BANK6   BANK7   BANK8   BANK9  BANK10  BANK11  BANK12  BANK13  BANK14
      Params:         0       0       0       0       0       0       0       0       0       0       0       0       0       0       0       0
      Locals:         0       2       0       0       0       0       0       0       0       0       0       0       0       0       0       0
      Temps:          0       2       0       0       0       0       0       0       0       0       0       0       0       0       0       0
      Totals:         0       4       0       0       0       0       0       0       0       0       0       0       0       0       0       0
Total ram usage:        4 bytes
 Hardware stack levels used:    1
 Hardware stack levels required when called:    5
 This function calls:
		_SearchForLongAddress
		_SearchForShortAddress
		_findNextNetworkEntry
 This function is called by:
		_MiWiTasks
		_OpenSocket
 This function uses a non-reentrant model


 *************** function _findNextNetworkEntry *****************
 Defined at:
		line 2547 in file "../../../../../../framework/miwi/src/miwi_mesh.c"
 Parameters:    Size  Location     Type
		None
 Auto vars:     Size  Location     Type
  i               1    0[BANK0 ] unsigned char 
 Return value:  Size  Location     Type
                  1    wreg      unsigned char 
 Registers used:
		wreg, fsr2l, fsr2h, status,2, status,0, prodl, prodh
 Tracked objects:
		On entry : 
		On exit  : 
		Unchanged: 
 Data sizes:     COMRAM   BANK0   BANK1   BANK2   BANK3   BANK4   BANK5   BANK6   BANK7   BANK8   BANK9  BANK10  BANK11  BANK12  BANK13  BANK14
      Params:         0       0       0       0       0       0       0       0       0       0       0       0       0       0       0       0
      Locals:         0       1       0       0       0       0       0       0       0       0       0       0       0       0       0       0
      Temps:          0       0       0       0       0       0       0       0       0       0       0       0       0       0       0       0
      Totals:         0       1       0       0       0       0       0       0       0       0       0       0       0       0       0       0
Total ram usage:        1 bytes
 Hardware stack levels used:    1
 Hardware stack levels required when called:    4
 This function calls:
		Nothing
 This function is called by:
		_AddNodeToNetworkTable
		_MiApp_EstablishConnection
 This function uses a non-reentrant model


 *************** function _SearchForShortAddress *****************
 Defined at:
		line 3209 in file "../../../../../../framework/miwi/src/miwi_mesh.c"
 Parameters:    Size  Location     Type
		None
 Auto vars:     Size  Location     Type
  i               1    2[BANK0 ] unsigned char 
 Return value:  Size  Location     Type
                  1    wreg      unsigned char 
 Registers used:
		wreg, fsr2l, fsr2h, status,2, status,0, prodl, prodh
 Tracked objects:
		On entry : 
		On exit  : 
		Unchanged: 
 Data sizes:     COMRAM   BANK0   BANK1   BANK2   BANK3   BANK4   BANK5   BANK6   BANK7   BANK8   BANK9  BANK10  BANK11  BANK12  BANK13  BANK14
      Params:         0       0       0       0       0       0       0       0       0       0       0       0       0       0       0       0
      Locals:         0       1       0       0       0       0       0       0       0       0       0       0       0       0       0       0
      Temps:          0       2       0       0       0       0       0       0       0       0       0       0       0       0       0       0
      Totals:         0       3       0       0       0       0       0       0       0       0       0       0       0       0       0       0
Total ram usage:        3 bytes
 Hardware stack levels used:    1
 Hardware stack levels required when called:    4
 This function calls:
		Nothing
 This function is called by:
		_MiWiTasks
		_SendIndirectPacket
		_OpenSocket
		_AddNodeToNetworkTable
		_MiApp_EstablishConnection
 This function uses a non-reentrant model


 *************** function _SearchForLongAddress *****************
 Defined at:
		line 3290 in file "../../../../../../framework/miwi/src/miwi_mesh.c"
 Parameters:    Size  Location     Type
		None
 Auto vars:     Size  Location     Type
  i               1    5[BANK0 ] unsigned char 
  j               1    4[BANK0 ] unsigned char 
 Return value:  Size  Location     Type
                  1    wreg      unsigned char 
 Registers used:
		wreg, fsr1l, fsr1h, fsr2l, fsr2h, status,2, status,0, prodl, prodh
 Tracked objects:
		On entry : 
		On exit  : 
		Unchanged: 
 Data sizes:     COMRAM   BANK0   BANK1   BANK2   BANK3   BANK4   BANK5   BANK6   BANK7   BANK8   BANK9  BANK10  BANK11  BANK12  BANK13  BANK14
      Params:         0       0       0       0       0       0       0       0       0       0       0       0       0       0       0       0
      Locals:         0       2       0       0       0       0       0       0       0       0       0       0       0       0       0       0
      Temps:          0       4       0       0       0       0       0       0       0       0       0       0       0       0       0       0
      Totals:         0       6       0       0       0       0       0       0       0       0       0       0       0       0       0       0
Total ram usage:        6 bytes
 Hardware stack levels used:    1
 Hardware stack levels required when called:    4
 This function calls:
		Nothing
 This function is called by:
		_MiWiTasks
		_SendIndirectPacket
		_AddNodeToNetworkTable
		_MiApp_UnicastAddress
 This function uses a non-reentrant model


 *************** function _MiApp_DiscardMessage *****************
 Defined at:
		line 4203 in file "../../../../../../framework/miwi/src/miwi_mesh.c"
 Parameters:    Size  Location     Type
		None
 Auto vars:     Size  Location     Type
		None
 Return value:  Size  Location     Type
		None               void
 Registers used:
		wreg, fsr2l, fsr2h, status,2, status,0, prodl, prodh, cstack
 Tracked objects:
		On entry : 
		On exit  : 
		Unchanged: 
 Data sizes:     COMRAM   BANK0   BANK1   BANK2   BANK3   BANK4   BANK5   BANK6   BANK7   BANK8   BANK9  BANK10  BANK11  BANK12  BANK13  BANK14
      Params:         0       0       0       0       0       0       0       0       0       0       0       0       0       0       0       0
      Locals:         0       0       0       0       0       0       0       0       0       0       0       0       0       0       0       0
      Temps:          0       0       0       0       0       0       0       0       0       0       0       0       0       0       0       0
      Totals:         0       0       0       0       0       0       0       0       0       0       0       0       0       0       0       0
Total ram usage:        0 bytes
 Hardware stack levels used:    1
 Hardware stack levels required when called:    5
 This function calls:
		_MiMAC_DiscardPacket
 This function is called by:
		_MiApp_SearchConnection
		_MiApp_EstablishConnection
		_MiApp_UnicastConnection
		_MiApp_UnicastAddress
		_main
		_RangeDemo
		_TempDemo
		_MiApp_ResyncConnection
 This function uses a non-reentrant model


 *************** function _MiMAC_DiscardPacket *****************
 Defined at:
		line 693 in file "../../../../../../framework/driver/mrf_miwi/src/drv_mrf_miwi_24j40.c"
 Parameters:    Size  Location     Type
		None
 Auto vars:     Size  Location     Type
		None
 Return value:  Size  Location     Type
		None               void
 Registers used:
		wreg, fsr2l, fsr2h, status,2, status,0, prodl, prodh
 Tracked objects:
		On entry : 
		On exit  : 
		Unchanged: 
 Data sizes:     COMRAM   BANK0   BANK1   BANK2   BANK3   BANK4   BANK5   BANK6   BANK7   BANK8   BANK9  BANK10  BANK11  BANK12  BANK13  BANK14
      Params:         0       0       0       0       0       0       0       0       0       0       0       0       0       0       0       0
      Locals:         0       0       0       0       0       0       0       0       0       0       0       0       0       0       0       0
      Temps:          0       0       0       0       0       0       0       0       0       0       0       0       0       0       0       0
      Totals:         0       0       0       0       0       0       0       0       0       0       0       0       0       0       0       0
Total ram usage:        0 bytes
 Hardware stack levels used:    1
 Hardware stack levels required when called:    4
 This function calls:
		Nothing
 This function is called by:
		_MiMAC_ReceivedPacket
		_MiWiTasks
		_MiApp_DiscardMessage
 This function uses a non-reentrant model


 *************** function _MiApp_ConnectionMode *****************
 Defined at:
		line 3881 in file "../../../../../../framework/miwi/src/miwi_mesh.c"
 Parameters:    Size  Location     Type
  Mode            1    wreg     unsigned char 
 Auto vars:     Size  Location     Type
  Mode            1    1[BANK0 ] unsigned char 
 Return value:  Size  Location     Type
		None               void
 Registers used:
		wreg, status,2, status,0
 Tracked objects:
		On entry : 
		On exit  : 
		Unchanged: 
 Data sizes:     COMRAM   BANK0   BANK1   BANK2   BANK3   BANK4   BANK5   BANK6   BANK7   BANK8   BANK9  BANK10  BANK11  BANK12  BANK13  BANK14
      Params:         0       0       0       0       0       0       0       0       0       0       0       0       0       0       0       0
      Locals:         0       1       0       0       0       0       0       0       0       0       0       0       0       0       0       0
      Temps:          0       1       0       0       0       0       0       0       0       0       0       0       0       0       0       0
      Totals:         0       2       0       0       0       0       0       0       0       0       0       0       0       0       0       0
Total ram usage:        2 bytes
 Hardware stack levels used:    1
 Hardware stack levels required when called:    4
 This function calls:
		Nothing
 This function is called by:
		_main
		_MiApp_InitChannelHopping
 This function uses a non-reentrant model


 *************** function _high_isr *****************
 Defined at:
		line 1852 in file "../../../../../../framework/driver/mrf_miwi/src/drv_mrf_miwi_24j40.c"
 Parameters:    Size  Location     Type
		None
 Auto vars:     Size  Location     Type
  results         1   27[COMRAM] struct _DRIVER_UINT8_UNI
  RxBank          1   30[COMRAM] unsigned char 
  flags           2   28[COMRAM] struct .
  i               1   31[COMRAM] unsigned char 
 Return value:  Size  Location     Type
		None               void
 Registers used:
		wreg, fsr2l, fsr2h, status,2, status,0, prodl, prodh, cstack
 Tracked objects:
		On entry : 
		On exit  : 
		Unchanged: 
 Data sizes:     COMRAM   BANK0   BANK1   BANK2   BANK3   BANK4   BANK5   BANK6   BANK7   BANK8   BANK9  BANK10  BANK11  BANK12  BANK13  BANK14
      Params:         0       0       0       0       0       0       0       0       0       0       0       0       0       0       0       0
      Locals:         5       0       0       0       0       0       0       0       0       0       0       0       0       0       0       0
      Temps:         19       0       0       0       0       0       0       0       0       0       0       0       0       0       0       0
      Totals:        24       0       0       0       0       0       0       0       0       0       0       0       0       0       0       0
Total ram usage:       24 bytes
 Hardware stack levels used:    1
 Hardware stack levels required when called:    3
 This function calls:
		_UserInterruptHandler
		i2_PHYGetLongRAMAddr
		i2_PHYGetShortRAMAddr
		i2_PHYSetShortRAMAddr
 This function is called by:
		Interrupt level 2
 This function uses a non-reentrant model


 *************** function i2_PHYSetShortRAMAddr *****************
 Defined at:
		line 124 in file "../../../../../../framework/driver/mrf_miwi/src/drv_mrf_miwi_24j40.c"
 Parameters:    Size  Location     Type
  address         1    wreg     unsigned char 
  value           1    2[COMRAM] unsigned char 
 Auto vars:     Size  Location     Type
  address         1    3[COMRAM] unsigned char 
  PHYSetShortR    1    4[COMRAM] volatile unsigned char 
 Return value:  Size  Location     Type
		None               void
 Registers used:
		wreg, status,2, cstack
 Tracked objects:
		On entry : 
		On exit  : 
		Unchanged: 
 Data sizes:     COMRAM   BANK0   BANK1   BANK2   BANK3   BANK4   BANK5   BANK6   BANK7   BANK8   BANK9  BANK10  BANK11  BANK12  BANK13  BANK14
      Params:         1       0       0       0       0       0       0       0       0       0       0       0       0       0       0       0
      Locals:         2       0       0       0       0       0       0       0       0       0       0       0       0       0       0       0
      Temps:          0       0       0       0       0       0       0       0       0       0       0       0       0       0       0       0
      Totals:         3       0       0       0       0       0       0       0       0       0       0       0       0       0       0       0
Total ram usage:        3 bytes
 Hardware stack levels used:    1
 Hardware stack levels required when called:    1
 This function calls:
		i2_SPIPut
 This function is called by:
		_high_isr
 This function uses a non-reentrant model


 *************** function i2_PHYGetShortRAMAddr *****************
 Defined at:
		line 154 in file "../../../../../../framework/driver/mrf_miwi/src/drv_mrf_miwi_24j40.c"
 Parameters:    Size  Location     Type
  address         1    wreg     unsigned char 
 Auto vars:     Size  Location     Type
  address         1    2[COMRAM] unsigned char 
  PHYGetShortR    1    4[COMRAM] volatile unsigned char 
  PHYGetShortR    1    3[COMRAM] unsigned char 
 Return value:  Size  Location     Type
                  1    wreg      unsigned char 
 Registers used:
		wreg, status,2, cstack
 Tracked objects:
		On entry : 
		On exit  : 
		Unchanged: 
 Data sizes:     COMRAM   BANK0   BANK1   BANK2   BANK3   BANK4   BANK5   BANK6   BANK7   BANK8   BANK9  BANK10  BANK11  BANK12  BANK13  BANK14
      Params:         0       0       0       0       0       0       0       0       0       0       0       0       0       0       0       0
      Locals:         3       0       0       0       0       0       0       0       0       0       0       0       0       0       0       0
      Temps:          0       0       0       0       0       0       0       0       0       0       0       0       0       0       0       0
      Totals:         3       0       0       0       0       0       0       0       0       0       0       0       0       0       0       0
Total ram usage:        3 bytes
 Hardware stack levels used:    1
 Hardware stack levels required when called:    2
 This function calls:
		i2_SPIGet
		i2_SPIPut
 This function is called by:
		_high_isr
 This function uses a non-reentrant model


 *************** function i2_PHYGetLongRAMAddr *****************
 Defined at:
		line 185 in file "../../../../../../framework/driver/mrf_miwi/src/drv_mrf_miwi_24j40.c"
 Parameters:    Size  Location     Type
  address         2    2[COMRAM] unsigned int 
 Auto vars:     Size  Location     Type
  PHYGetLongRA    1    7[COMRAM] volatile unsigned char 
  PHYGetLongRA    1    6[COMRAM] unsigned char 
 Return value:  Size  Location     Type
                  1    wreg      unsigned char 
 Registers used:
		wreg, status,2, status,0, cstack
 Tracked objects:
		On entry : 
		On exit  : 
		Unchanged: 
 Data sizes:     COMRAM   BANK0   BANK1   BANK2   BANK3   BANK4   BANK5   BANK6   BANK7   BANK8   BANK9  BANK10  BANK11  BANK12  BANK13  BANK14
      Params:         2       0       0       0       0       0       0       0       0       0       0       0       0       0       0       0
      Locals:         2       0       0       0       0       0       0       0       0       0       0       0       0       0       0       0
      Temps:          2       0       0       0       0       0       0       0       0       0       0       0       0       0       0       0
      Totals:         6       0       0       0       0       0       0       0       0       0       0       0       0       0       0       0
Total ram usage:        6 bytes
 Hardware stack levels used:    1
 Hardware stack levels required when called:    2
 This function calls:
		i2_SPIGet
		i2_SPIPut
 This function is called by:
		_high_isr
 This function uses a non-reentrant model


 *************** function i2_SPIGet *****************
 Defined at:
		line 102 in file "../src/system_config/miwikit_pic18f46j50_24j40/spi.c"
 Parameters:    Size  Location     Type
		None
 Auto vars:     Size  Location     Type
		None
 Return value:  Size  Location     Type
                  1    wreg      unsigned char 
 Registers used:
		wreg, status,2, cstack
 Tracked objects:
		On entry : 
		On exit  : 
		Unchanged: 
 Data sizes:     COMRAM   BANK0   BANK1   BANK2   BANK3   BANK4   BANK5   BANK6   BANK7   BANK8   BANK9  BANK10  BANK11  BANK12  BANK13  BANK14
      Params:         0       0       0       0       0       0       0       0       0       0       0       0       0       0       0       0
      Locals:         0       0       0       0       0       0       0       0       0       0       0       0       0       0       0       0
      Temps:          0       0       0       0       0       0       0       0       0       0       0       0       0       0       0       0
      Totals:         0       0       0       0       0       0       0       0       0       0       0       0       0       0       0       0
Total ram usage:        0 bytes
 Hardware stack levels used:    1
 Hardware stack levels required when called:    1
 This function calls:
		i2_SPIPut
 This function is called by:
		i2_PHYGetShortRAMAddr
		i2_PHYGetLongRAMAddr
 This function uses a non-reentrant model


 *************** function i2_SPIPut *****************
 Defined at:
		line 45 in file "../src/system_config/miwikit_pic18f46j50_24j40/spi.c"
 Parameters:    Size  Location     Type
  v               1    wreg     unsigned char 
 Auto vars:     Size  Location     Type
  v               1    1[COMRAM] unsigned char 
  SPIPut          1    0[COMRAM] unsigned char 
 Return value:  Size  Location     Type
		None               void
 Registers used:
		wreg
 Tracked objects:
		On entry : 
		On exit  : 
		Unchanged: 
 Data sizes:     COMRAM   BANK0   BANK1   BANK2   BANK3   BANK4   BANK5   BANK6   BANK7   BANK8   BANK9  BANK10  BANK11  BANK12  BANK13  BANK14
      Params:         0       0       0       0       0       0       0       0       0       0       0       0       0       0       0       0
      Locals:         2       0       0       0       0       0       0       0       0       0       0       0       0       0       0       0
      Temps:          0       0       0       0       0       0       0       0       0       0       0       0       0       0       0       0
      Totals:         2       0       0       0       0       0       0       0       0       0       0       0       0       0       0       0
Total ram usage:        2 bytes
 Hardware stack levels used:    1
 This function calls:
		Nothing
 This function is called by:
		i2_PHYSetShortRAMAddr
		i2_PHYGetShortRAMAddr
		i2_PHYGetLongRAMAddr
		i2_SPIGet
 This function uses a non-reentrant model


 *************** function _UserInterruptHandler *****************
 Defined at:
		line 186 in file "../src/system_config/miwikit_pic18f46j50_24j40/lcd.c"
 Parameters:    Size  Location     Type
		None
 Auto vars:     Size  Location     Type
		None
 Return value:  Size  Location     Type
		None               void
 Registers used:
		None
 Tracked objects:
		On entry : 
		On exit  : 
		Unchanged: 
 Data sizes:     COMRAM   BANK0   BANK1   BANK2   BANK3   BANK4   BANK5   BANK6   BANK7   BANK8   BANK9  BANK10  BANK11  BANK12  BANK13  BANK14
      Params:         0       0       0       0       0       0       0       0       0       0       0       0       0       0       0       0
      Locals:         0       0       0       0       0       0       0       0       0       0       0       0       0       0       0       0
      Temps:          0       0       0       0       0       0       0       0       0       0       0       0       0       0       0       0
      Totals:         0       0       0       0       0       0       0       0       0       0       0       0       0       0       0       0
Total ram usage:        0 bytes
 Hardware stack levels used:    1
 This function calls:
		Nothing
 This function is called by:
		_high_isr
 This function uses a non-reentrant model



MODULE INFORMATION

Module		Function		Class		Link	Load	Size
../src/system_config/miwikit_pic18f46j50_24j40/lcd.c
		_LCD_BacklightOFF		CODE           	9C7C	0000	5
		_LCD_Erase     		CODE           	98C6	0000	59
		_LCD_Initialize		CODE           	92B0	0000	131
		_LCD_Update    		CODE           	8FCE	0000	169
		_LCD_Display   		CODE           	9626	0000	87
		_UserInterruptHandler		CODE           	9C80	0000	3
		_LCD_BacklightON		CODE           	9C78	0000	5
		_LCD_WriteCmd  		CODE           	9C22	0000	21
		_LCD_WriteData 		CODE           	9C0E	0000	21

../src/system_config/miwikit_pic18f46j50_24j40/lcd.c estimated size: 501

C:\Program Files (x86)\Microchip\xc8\v1.35\sources\common\awdiv.c
		___awdiv       		CODE           	8C54	0000	191

C:\Program Files (x86)\Microchip\xc8\v1.35\sources\common\awdiv.c estimated size: 191

../../../../../../framework/driver/mrf_miwi/src/drv_mrf_miwi_24j40.c
		_PHYGetLongRAMAddr		CODE           	94FE	0000	101
		_PHYSetLongRAMAddr		CODE           	95C4	0000	99
		_PHYGetShortRAMAddr		CODE           	996E	0000	55
		_PHYSetShortRAMAddr		CODE           	99D8	0000	51
		_InitMRF24J40  		CODE           	6AEA	0000	705
		_MiMAC_ReceivedPacket		CODE           	3F86	0000	1747
		_MiMAC_DiscardPacket		CODE           	9BC2	0000	29
		_high_isr      		CODE           	0008	0000	491
		_MiMAC_ChannelAssessment		CODE           	97BE	0000	73
		_MiMAC_SetChannel		CODE           	967C	0000	85
		_MiMAC_Init    		CODE           	9774	0000	75
		_MiMAC_SendPacket		CODE           	5AE6	0000	1219
		_MiMAC_SetAltAddress		CODE           	9490	0000	111

../../../../../../framework/driver/mrf_miwi/src/drv_mrf_miwi_24j40.c estimated size: 4841

../src/system_config/miwikit_pic18f46j50_24j40/system.c
		_SYSTEM_Initialize		CODE           	8DCC	0000	175

../src/system_config/miwikit_pic18f46j50_24j40/system.c estimated size: 175

C:\Program Files (x86)\Microchip\xc8\v1.35\sources\common\ftadd.c
		___ftadd       		CODE           	72E2	0000	617

C:\Program Files (x86)\Microchip\xc8\v1.35\sources\common\ftadd.c estimated size: 617

../src/system_config/miwikit_pic18f46j50_24j40/serial_flash.c
		_SSTGetID      		CODE           	9A68	0000	45

../src/system_config/miwikit_pic18f46j50_24j40/serial_flash.c estimated size: 45

C:\Program Files (x86)\Microchip\xc8\v1.35\sources\common\Umul32.c
		___lmul        		CODE           	93AA	0000	119

C:\Program Files (x86)\Microchip\xc8\v1.35\sources\common\Umul32.c estimated size: 119

C:\Program Files (x86)\Microchip\xc8\v1.35\sources\common\isdigit.c
		_isdigit       		CODE           	9AEA	0000	43

C:\Program Files (x86)\Microchip\xc8\v1.35\sources\common\isdigit.c estimated size: 43

C:\Program Files (x86)\Microchip\xc8\v1.35\sources\common\ftge.c
		___ftge        		CODE           	8B8C	0000	201

C:\Program Files (x86)\Microchip\xc8\v1.35\sources\common\ftge.c estimated size: 201

../src/system_config/miwikit_pic18f46j50_24j40/button.c
		_BUTTON_Pressed		CODE           	8088	0000	345

../src/system_config/miwikit_pic18f46j50_24j40/button.c estimated size: 345

C:\Program Files (x86)\Microchip\xc8\v1.35\sources\common\lwtoft.c
		___lwtoft      		CODE           	9AC0	0000	43

C:\Program Files (x86)\Microchip\xc8\v1.35\sources\common\lwtoft.c estimated size: 43

C:\Program Files (x86)\Microchip\xc8\v1.35\sources\common\ftneg.c
		___ftneg       		CODE           	9A0A	0000	49

C:\Program Files (x86)\Microchip\xc8\v1.35\sources\common\ftneg.c estimated size: 49

C:\Program Files (x86)\Microchip\xc8\v1.35\sources\common\lbtoft.c
		___lbtoft      		CODE           	9A3A	0000	47

C:\Program Files (x86)\Microchip\xc8\v1.35\sources\common\lbtoft.c estimated size: 47

C:\Program Files (x86)\Microchip\xc8\v1.35\sources\common\memset.c
		_memset        		CODE           	99A4	0000	53

C:\Program Files (x86)\Microchip\xc8\v1.35\sources\common\memset.c estimated size: 53

C:\Program Files (x86)\Microchip\xc8\v1.35\sources\common\float.c
		___ftpack      		CODE           	86A6	0000	269

C:\Program Files (x86)\Microchip\xc8\v1.35\sources\common\float.c estimated size: 269

C:\Program Files (x86)\Microchip\xc8\v1.35\sources\common\lwmod.c
		___lwmod       		CODE           	9562	0000	99

C:\Program Files (x86)\Microchip\xc8\v1.35\sources\common\lwmod.c estimated size: 99

../src/system_config/miwikit_pic18f46j50_24j40/delay.c
		_DELAY_ms      		CODE           	8E7A	0000	171
		_DELAY_10us    		CODE           	9076	0000	155

../src/system_config/miwikit_pic18f46j50_24j40/delay.c estimated size: 326

../../../../../../framework/miwi/src/miwi_mesh.c
		_MiApp_NoiseDetection		CODE           	798E	0000	529
		_UnicastShortAddress		CODE           	9110	0000	143
		_MiApp_EstablishConnection		CODE           	5610	0000	1239
		_MiApp_ProtocolInit		CODE           	7DA4	0000	391
		_MiApp_UnicastAddress		CODE           	5FA8	0000	1091
		_MiApp_StartConnection		CODE           	88BC	0000	265
		_SendMACPacket 		CODE           	8F24	0000	171
		_SendBeacon    		CODE           	8470	0000	297
		_SendIndirectPacket		CODE           	3828	0000	1887
		_SearchForLongAddress		CODE           	8AC0	0000	205
		_MiApp_BroadcastPacket		CODE           	89C4	0000	253
		_findNextNetworkEntry		CODE           	984A	0000	65
		_SearchForShortAddress		CODE           	9228	0000	137
		_MiApp_UnicastConnection		CODE           	777E	0000	529
		_OpenSocket    		CODE           	63EA	0000	1001
		_RouteMessage  		CODE           	5134	0000	1245
		_MiApp_SetChannel		CODE           	9B66	0000	37
		_SaveIndirectMessage		CODE           	6DAA	0000	689
		_MiWiTasks     		CODE           	01F6	0000	7155
		_MiApp_DiscardMessage		CODE           	9C70	0000	9
		_BroadcastJitter		CODE           	8D12	0000	187
		_MiApp_MessageAvailable		CODE           	9C36	0000	17
		_MiApp_SearchConnection		CODE           	754A	0000	565
		_isSameAddress 		CODE           	96D0	0000	83
		_AddNodeToNetworkTable		CODE           	87B2	0000	267
		_MiApp_ConnectionMode		CODE           	9A94	0000	45

../../../../../../framework/miwi/src/miwi_mesh.c estimated size: 18502

C:\Program Files (x86)\Microchip\xc8\v1.35\sources\common\doprnt.c
		_sprintf       		CODE           	2DEA	0000	2623

C:\Program Files (x86)\Microchip\xc8\v1.35\sources\common\doprnt.c estimated size: 2623

../src/system_config/miwikit_pic18f46j50_24j40/eeprom.c
		_EEPROMRead    		CODE           	9900	0000	57
		_Read_MAC_Address		CODE           	8598	0000	271

../src/system_config/miwikit_pic18f46j50_24j40/eeprom.c estimated size: 328

shared
		_dpowers       		MEDIUMCONST    	FBEF	0000	11
		_ScanTime      		MEDIUMCONST    	FBA7	0000	61
		i2_PHYGetShortRAMAddr		CODE           	9B14	0000	43
		i2_PHYGetLongRAMAddr		CODE           	9722	0000	83
		i2_PHYSetShortRAMAddr		CODE           	9B3E	0000	41
		__initialization		CODE           	919E	0000	125
		_octpowers     		MEDIUMCONST    	FBE3	0000	13
		i2_SPIGet      		CODE           	9C66	0000	11
		_hexpowers     		MEDIUMCONST    	FBF9	0000	9
		i2_SPIPut      		CODE           	9BDE	0000	27

shared estimated size: 424

../src/system_config/miwikit_pic18f46j50_24j40/symbol.c
		_InitSymbolTimer		CODE           	9BF8	0000	23
		_MiWi_TickGet  		CODE           	9420	0000	113

../src/system_config/miwikit_pic18f46j50_24j40/symbol.c estimated size: 136

C:\Program Files (x86)\Microchip\xc8\v1.35\sources\common\ftmul.c
		___ftmul       		CODE           	7F2A	0000	351

C:\Program Files (x86)\Microchip\xc8\v1.35\sources\common\ftmul.c estimated size: 351

C:\Program Files (x86)\Microchip\xc8\v1.35\sources\common\ftdiv.c
		___ftdiv       		CODE           	81E0	0000	333

C:\Program Files (x86)\Microchip\xc8\v1.35\sources\common\ftdiv.c estimated size: 333

../src/range_demo.c
		_RangeDemo     		CODE           	4BF2	0000	1347

../src/range_demo.c estimated size: 1347

C:\Program Files (x86)\Microchip\xc8\v1.35\sources\common\lwdiv.c
		___lwdiv       		CODE           	9332	0000	121

C:\Program Files (x86)\Microchip\xc8\v1.35\sources\common\lwdiv.c estimated size: 121

../src/system_config/miwikit_pic18f46j50_24j40/spi.c
		_SPIPut2       		CODE           	9B8A	0000	29
		_SPIGet        		CODE           	9C5C	0000	11
		_SPIGet2       		CODE           	9C52	0000	11
		_SPIPut        		CODE           	9BA6	0000	29

../src/system_config/miwikit_pic18f46j50_24j40/spi.c estimated size: 80

../src/main.c
		_main          		CODE           	1DE8	0000	4099

../src/main.c estimated size: 4099

C:\Program Files (x86)\Microchip\xc8\v1.35\sources\common\Umul16.c
		___wmul        		CODE           	9938	0000	55

C:\Program Files (x86)\Microchip\xc8\v1.35\sources\common\Umul16.c estimated size: 55

../src/self_test.c
		_SelfTest      		CODE           	67D2	0000	793

../src/self_test.c estimated size: 793

C:\Program Files (x86)\Microchip\xc8\v1.35\sources\common\lbmod.c
		___lbmod       		CODE           	9806	0000	69

C:\Program Files (x86)\Microchip\xc8\v1.35\sources\common\lbmod.c estimated size: 69

../src/temp_demo.c
		_ReadTempSensor		CODE           	705A	0000	649
		_PrintTempLCD  		CODE           	7B9E	0000	519
		_Read_VBGVoltage		CODE           	988A	0000	61
		_TempDemo      		CODE           	4658	0000	1435

../src/temp_demo.c estimated size: 2664

C:\Program Files (x86)\Microchip\xc8\v1.35\sources\common\fttol.c
		___fttol       		CODE           	832C	0000	325

C:\Program Files (x86)\Microchip\xc8\v1.35\sources\common\fttol.c estimated size: 325

